
kernel/kernel:     file format elf64-littleriscv


Disassembly of section .text:

0000000080000000 <_entry>:
    80000000:	00009117          	auipc	sp,0x9
    80000004:	ab013103          	ld	sp,-1360(sp) # 80008ab0 <_GLOBAL_OFFSET_TABLE_+0x8>
    80000008:	6505                	lui	a0,0x1
    8000000a:	f14025f3          	csrr	a1,mhartid
    8000000e:	0585                	addi	a1,a1,1
    80000010:	02b50533          	mul	a0,a0,a1
    80000014:	912a                	add	sp,sp,a0
    80000016:	367050ef          	jal	ra,80005b7c <start>

000000008000001a <spin>:
    8000001a:	a001                	j	8000001a <spin>

000000008000001c <kfree>:
// which normally should have been returned by a
// call to kalloc().  (The exception is when
// initializing the allocator; see kinit above.)
void
kfree(void *pa)
{
    8000001c:	1101                	addi	sp,sp,-32
    8000001e:	ec06                	sd	ra,24(sp)
    80000020:	e822                	sd	s0,16(sp)
    80000022:	e426                	sd	s1,8(sp)
    80000024:	e04a                	sd	s2,0(sp)
    80000026:	1000                	addi	s0,sp,32
  struct run *r;

  if(((uint64)pa % PGSIZE) != 0 || (char*)pa < end || (uint64)pa >= PHYSTOP)
    80000028:	03451793          	slli	a5,a0,0x34
    8000002c:	ebb9                	bnez	a5,80000082 <kfree+0x66>
    8000002e:	84aa                	mv	s1,a0
    80000030:	00034797          	auipc	a5,0x34
    80000034:	f4078793          	addi	a5,a5,-192 # 80033f70 <end>
    80000038:	04f56563          	bltu	a0,a5,80000082 <kfree+0x66>
    8000003c:	47c5                	li	a5,17
    8000003e:	07ee                	slli	a5,a5,0x1b
    80000040:	04f57163          	bgeu	a0,a5,80000082 <kfree+0x66>
    panic("kfree");

  // Fill with junk to catch dangling refs.
  memset(pa, 1, PGSIZE);
    80000044:	6605                	lui	a2,0x1
    80000046:	4585                	li	a1,1
    80000048:	00000097          	auipc	ra,0x0
    8000004c:	130080e7          	jalr	304(ra) # 80000178 <memset>

  r = (struct run*)pa;

  acquire(&kmem.lock);
    80000050:	00009917          	auipc	s2,0x9
    80000054:	ab090913          	addi	s2,s2,-1360 # 80008b00 <kmem>
    80000058:	854a                	mv	a0,s2
    8000005a:	00006097          	auipc	ra,0x6
    8000005e:	522080e7          	jalr	1314(ra) # 8000657c <acquire>
  r->next = kmem.freelist;
    80000062:	01893783          	ld	a5,24(s2)
    80000066:	e09c                	sd	a5,0(s1)
  kmem.freelist = r;
    80000068:	00993c23          	sd	s1,24(s2)
  release(&kmem.lock);
    8000006c:	854a                	mv	a0,s2
    8000006e:	00006097          	auipc	ra,0x6
    80000072:	5c2080e7          	jalr	1474(ra) # 80006630 <release>
}
    80000076:	60e2                	ld	ra,24(sp)
    80000078:	6442                	ld	s0,16(sp)
    8000007a:	64a2                	ld	s1,8(sp)
    8000007c:	6902                	ld	s2,0(sp)
    8000007e:	6105                	addi	sp,sp,32
    80000080:	8082                	ret
    panic("kfree");
    80000082:	00008517          	auipc	a0,0x8
    80000086:	f8e50513          	addi	a0,a0,-114 # 80008010 <etext+0x10>
    8000008a:	00006097          	auipc	ra,0x6
    8000008e:	fa8080e7          	jalr	-88(ra) # 80006032 <panic>

0000000080000092 <freerange>:
{
    80000092:	7179                	addi	sp,sp,-48
    80000094:	f406                	sd	ra,40(sp)
    80000096:	f022                	sd	s0,32(sp)
    80000098:	ec26                	sd	s1,24(sp)
    8000009a:	e84a                	sd	s2,16(sp)
    8000009c:	e44e                	sd	s3,8(sp)
    8000009e:	e052                	sd	s4,0(sp)
    800000a0:	1800                	addi	s0,sp,48
  p = (char*)PGROUNDUP((uint64)pa_start);
    800000a2:	6785                	lui	a5,0x1
    800000a4:	fff78493          	addi	s1,a5,-1 # fff <_entry-0x7ffff001>
    800000a8:	94aa                	add	s1,s1,a0
    800000aa:	757d                	lui	a0,0xfffff
    800000ac:	8ce9                	and	s1,s1,a0
  for(; p + PGSIZE <= (char*)pa_end; p += PGSIZE)
    800000ae:	94be                	add	s1,s1,a5
    800000b0:	0095ee63          	bltu	a1,s1,800000cc <freerange+0x3a>
    800000b4:	892e                	mv	s2,a1
    kfree(p);
    800000b6:	7a7d                	lui	s4,0xfffff
  for(; p + PGSIZE <= (char*)pa_end; p += PGSIZE)
    800000b8:	6985                	lui	s3,0x1
    kfree(p);
    800000ba:	01448533          	add	a0,s1,s4
    800000be:	00000097          	auipc	ra,0x0
    800000c2:	f5e080e7          	jalr	-162(ra) # 8000001c <kfree>
  for(; p + PGSIZE <= (char*)pa_end; p += PGSIZE)
    800000c6:	94ce                	add	s1,s1,s3
    800000c8:	fe9979e3          	bgeu	s2,s1,800000ba <freerange+0x28>
}
    800000cc:	70a2                	ld	ra,40(sp)
    800000ce:	7402                	ld	s0,32(sp)
    800000d0:	64e2                	ld	s1,24(sp)
    800000d2:	6942                	ld	s2,16(sp)
    800000d4:	69a2                	ld	s3,8(sp)
    800000d6:	6a02                	ld	s4,0(sp)
    800000d8:	6145                	addi	sp,sp,48
    800000da:	8082                	ret

00000000800000dc <kinit>:
{
    800000dc:	1141                	addi	sp,sp,-16
    800000de:	e406                	sd	ra,8(sp)
    800000e0:	e022                	sd	s0,0(sp)
    800000e2:	0800                	addi	s0,sp,16
  initlock(&kmem.lock, "kmem");
    800000e4:	00008597          	auipc	a1,0x8
    800000e8:	f3458593          	addi	a1,a1,-204 # 80008018 <etext+0x18>
    800000ec:	00009517          	auipc	a0,0x9
    800000f0:	a1450513          	addi	a0,a0,-1516 # 80008b00 <kmem>
    800000f4:	00006097          	auipc	ra,0x6
    800000f8:	3f8080e7          	jalr	1016(ra) # 800064ec <initlock>
  freerange(end, (void*)PHYSTOP);
    800000fc:	45c5                	li	a1,17
    800000fe:	05ee                	slli	a1,a1,0x1b
    80000100:	00034517          	auipc	a0,0x34
    80000104:	e7050513          	addi	a0,a0,-400 # 80033f70 <end>
    80000108:	00000097          	auipc	ra,0x0
    8000010c:	f8a080e7          	jalr	-118(ra) # 80000092 <freerange>
}
    80000110:	60a2                	ld	ra,8(sp)
    80000112:	6402                	ld	s0,0(sp)
    80000114:	0141                	addi	sp,sp,16
    80000116:	8082                	ret

0000000080000118 <kalloc>:
// Allocate one 4096-byte page of physical memory.
// Returns a pointer that the kernel can use.
// Returns 0 if the memory cannot be allocated.
void *
kalloc(void)
{
    80000118:	1101                	addi	sp,sp,-32
    8000011a:	ec06                	sd	ra,24(sp)
    8000011c:	e822                	sd	s0,16(sp)
    8000011e:	e426                	sd	s1,8(sp)
    80000120:	1000                	addi	s0,sp,32
  struct run *r;

  acquire(&kmem.lock);
    80000122:	00009497          	auipc	s1,0x9
    80000126:	9de48493          	addi	s1,s1,-1570 # 80008b00 <kmem>
    8000012a:	8526                	mv	a0,s1
    8000012c:	00006097          	auipc	ra,0x6
    80000130:	450080e7          	jalr	1104(ra) # 8000657c <acquire>
  r = kmem.freelist;
    80000134:	6c84                	ld	s1,24(s1)
  if(r)
    80000136:	c885                	beqz	s1,80000166 <kalloc+0x4e>
    kmem.freelist = r->next;
    80000138:	609c                	ld	a5,0(s1)
    8000013a:	00009517          	auipc	a0,0x9
    8000013e:	9c650513          	addi	a0,a0,-1594 # 80008b00 <kmem>
    80000142:	ed1c                	sd	a5,24(a0)
  release(&kmem.lock);
    80000144:	00006097          	auipc	ra,0x6
    80000148:	4ec080e7          	jalr	1260(ra) # 80006630 <release>

  if(r)
    memset((char*)r, 5, PGSIZE); // fill with junk
    8000014c:	6605                	lui	a2,0x1
    8000014e:	4595                	li	a1,5
    80000150:	8526                	mv	a0,s1
    80000152:	00000097          	auipc	ra,0x0
    80000156:	026080e7          	jalr	38(ra) # 80000178 <memset>
  return (void*)r;
}
    8000015a:	8526                	mv	a0,s1
    8000015c:	60e2                	ld	ra,24(sp)
    8000015e:	6442                	ld	s0,16(sp)
    80000160:	64a2                	ld	s1,8(sp)
    80000162:	6105                	addi	sp,sp,32
    80000164:	8082                	ret
  release(&kmem.lock);
    80000166:	00009517          	auipc	a0,0x9
    8000016a:	99a50513          	addi	a0,a0,-1638 # 80008b00 <kmem>
    8000016e:	00006097          	auipc	ra,0x6
    80000172:	4c2080e7          	jalr	1218(ra) # 80006630 <release>
  if(r)
    80000176:	b7d5                	j	8000015a <kalloc+0x42>

0000000080000178 <memset>:
#include "types.h"

void*
memset(void *dst, int c, uint n)
{
    80000178:	1141                	addi	sp,sp,-16
    8000017a:	e422                	sd	s0,8(sp)
    8000017c:	0800                	addi	s0,sp,16
  char *cdst = (char *) dst;
  int i;
  for(i = 0; i < n; i++){
    8000017e:	ce09                	beqz	a2,80000198 <memset+0x20>
    80000180:	87aa                	mv	a5,a0
    80000182:	fff6071b          	addiw	a4,a2,-1
    80000186:	1702                	slli	a4,a4,0x20
    80000188:	9301                	srli	a4,a4,0x20
    8000018a:	0705                	addi	a4,a4,1
    8000018c:	972a                	add	a4,a4,a0
    cdst[i] = c;
    8000018e:	00b78023          	sb	a1,0(a5)
  for(i = 0; i < n; i++){
    80000192:	0785                	addi	a5,a5,1
    80000194:	fee79de3          	bne	a5,a4,8000018e <memset+0x16>
  }
  return dst;
}
    80000198:	6422                	ld	s0,8(sp)
    8000019a:	0141                	addi	sp,sp,16
    8000019c:	8082                	ret

000000008000019e <memcmp>:

int
memcmp(const void *v1, const void *v2, uint n)
{
    8000019e:	1141                	addi	sp,sp,-16
    800001a0:	e422                	sd	s0,8(sp)
    800001a2:	0800                	addi	s0,sp,16
  const uchar *s1, *s2;

  s1 = v1;
  s2 = v2;
  while(n-- > 0){
    800001a4:	ca05                	beqz	a2,800001d4 <memcmp+0x36>
    800001a6:	fff6069b          	addiw	a3,a2,-1
    800001aa:	1682                	slli	a3,a3,0x20
    800001ac:	9281                	srli	a3,a3,0x20
    800001ae:	0685                	addi	a3,a3,1
    800001b0:	96aa                	add	a3,a3,a0
    if(*s1 != *s2)
    800001b2:	00054783          	lbu	a5,0(a0)
    800001b6:	0005c703          	lbu	a4,0(a1)
    800001ba:	00e79863          	bne	a5,a4,800001ca <memcmp+0x2c>
      return *s1 - *s2;
    s1++, s2++;
    800001be:	0505                	addi	a0,a0,1
    800001c0:	0585                	addi	a1,a1,1
  while(n-- > 0){
    800001c2:	fed518e3          	bne	a0,a3,800001b2 <memcmp+0x14>
  }

  return 0;
    800001c6:	4501                	li	a0,0
    800001c8:	a019                	j	800001ce <memcmp+0x30>
      return *s1 - *s2;
    800001ca:	40e7853b          	subw	a0,a5,a4
}
    800001ce:	6422                	ld	s0,8(sp)
    800001d0:	0141                	addi	sp,sp,16
    800001d2:	8082                	ret
  return 0;
    800001d4:	4501                	li	a0,0
    800001d6:	bfe5                	j	800001ce <memcmp+0x30>

00000000800001d8 <memmove>:

void*
memmove(void *dst, const void *src, uint n)
{
    800001d8:	1141                	addi	sp,sp,-16
    800001da:	e422                	sd	s0,8(sp)
    800001dc:	0800                	addi	s0,sp,16
  const char *s;
  char *d;

  if(n == 0)
    800001de:	ca0d                	beqz	a2,80000210 <memmove+0x38>
    return dst;
  
  s = src;
  d = dst;
  if(s < d && s + n > d){
    800001e0:	00a5f963          	bgeu	a1,a0,800001f2 <memmove+0x1a>
    800001e4:	02061693          	slli	a3,a2,0x20
    800001e8:	9281                	srli	a3,a3,0x20
    800001ea:	00d58733          	add	a4,a1,a3
    800001ee:	02e56463          	bltu	a0,a4,80000216 <memmove+0x3e>
    s += n;
    d += n;
    while(n-- > 0)
      *--d = *--s;
  } else
    while(n-- > 0)
    800001f2:	fff6079b          	addiw	a5,a2,-1
    800001f6:	1782                	slli	a5,a5,0x20
    800001f8:	9381                	srli	a5,a5,0x20
    800001fa:	0785                	addi	a5,a5,1
    800001fc:	97ae                	add	a5,a5,a1
    800001fe:	872a                	mv	a4,a0
      *d++ = *s++;
    80000200:	0585                	addi	a1,a1,1
    80000202:	0705                	addi	a4,a4,1
    80000204:	fff5c683          	lbu	a3,-1(a1)
    80000208:	fed70fa3          	sb	a3,-1(a4)
    while(n-- > 0)
    8000020c:	fef59ae3          	bne	a1,a5,80000200 <memmove+0x28>

  return dst;
}
    80000210:	6422                	ld	s0,8(sp)
    80000212:	0141                	addi	sp,sp,16
    80000214:	8082                	ret
    d += n;
    80000216:	96aa                	add	a3,a3,a0
    while(n-- > 0)
    80000218:	fff6079b          	addiw	a5,a2,-1
    8000021c:	1782                	slli	a5,a5,0x20
    8000021e:	9381                	srli	a5,a5,0x20
    80000220:	fff7c793          	not	a5,a5
    80000224:	97ba                	add	a5,a5,a4
      *--d = *--s;
    80000226:	177d                	addi	a4,a4,-1
    80000228:	16fd                	addi	a3,a3,-1
    8000022a:	00074603          	lbu	a2,0(a4)
    8000022e:	00c68023          	sb	a2,0(a3)
    while(n-- > 0)
    80000232:	fef71ae3          	bne	a4,a5,80000226 <memmove+0x4e>
    80000236:	bfe9                	j	80000210 <memmove+0x38>

0000000080000238 <memcpy>:

// memcpy exists to placate GCC.  Use memmove.
void*
memcpy(void *dst, const void *src, uint n)
{
    80000238:	1141                	addi	sp,sp,-16
    8000023a:	e406                	sd	ra,8(sp)
    8000023c:	e022                	sd	s0,0(sp)
    8000023e:	0800                	addi	s0,sp,16
  return memmove(dst, src, n);
    80000240:	00000097          	auipc	ra,0x0
    80000244:	f98080e7          	jalr	-104(ra) # 800001d8 <memmove>
}
    80000248:	60a2                	ld	ra,8(sp)
    8000024a:	6402                	ld	s0,0(sp)
    8000024c:	0141                	addi	sp,sp,16
    8000024e:	8082                	ret

0000000080000250 <strncmp>:

int
strncmp(const char *p, const char *q, uint n)
{
    80000250:	1141                	addi	sp,sp,-16
    80000252:	e422                	sd	s0,8(sp)
    80000254:	0800                	addi	s0,sp,16
  while(n > 0 && *p && *p == *q)
    80000256:	ce11                	beqz	a2,80000272 <strncmp+0x22>
    80000258:	00054783          	lbu	a5,0(a0)
    8000025c:	cf89                	beqz	a5,80000276 <strncmp+0x26>
    8000025e:	0005c703          	lbu	a4,0(a1)
    80000262:	00f71a63          	bne	a4,a5,80000276 <strncmp+0x26>
    n--, p++, q++;
    80000266:	367d                	addiw	a2,a2,-1
    80000268:	0505                	addi	a0,a0,1
    8000026a:	0585                	addi	a1,a1,1
  while(n > 0 && *p && *p == *q)
    8000026c:	f675                	bnez	a2,80000258 <strncmp+0x8>
  if(n == 0)
    return 0;
    8000026e:	4501                	li	a0,0
    80000270:	a809                	j	80000282 <strncmp+0x32>
    80000272:	4501                	li	a0,0
    80000274:	a039                	j	80000282 <strncmp+0x32>
  if(n == 0)
    80000276:	ca09                	beqz	a2,80000288 <strncmp+0x38>
  return (uchar)*p - (uchar)*q;
    80000278:	00054503          	lbu	a0,0(a0)
    8000027c:	0005c783          	lbu	a5,0(a1)
    80000280:	9d1d                	subw	a0,a0,a5
}
    80000282:	6422                	ld	s0,8(sp)
    80000284:	0141                	addi	sp,sp,16
    80000286:	8082                	ret
    return 0;
    80000288:	4501                	li	a0,0
    8000028a:	bfe5                	j	80000282 <strncmp+0x32>

000000008000028c <strncpy>:

char*
strncpy(char *s, const char *t, int n)
{
    8000028c:	1141                	addi	sp,sp,-16
    8000028e:	e422                	sd	s0,8(sp)
    80000290:	0800                	addi	s0,sp,16
  char *os;

  os = s;
  while(n-- > 0 && (*s++ = *t++) != 0)
    80000292:	872a                	mv	a4,a0
    80000294:	8832                	mv	a6,a2
    80000296:	367d                	addiw	a2,a2,-1
    80000298:	01005963          	blez	a6,800002aa <strncpy+0x1e>
    8000029c:	0705                	addi	a4,a4,1
    8000029e:	0005c783          	lbu	a5,0(a1)
    800002a2:	fef70fa3          	sb	a5,-1(a4)
    800002a6:	0585                	addi	a1,a1,1
    800002a8:	f7f5                	bnez	a5,80000294 <strncpy+0x8>
    ;
  while(n-- > 0)
    800002aa:	00c05d63          	blez	a2,800002c4 <strncpy+0x38>
    800002ae:	86ba                	mv	a3,a4
    *s++ = 0;
    800002b0:	0685                	addi	a3,a3,1
    800002b2:	fe068fa3          	sb	zero,-1(a3)
  while(n-- > 0)
    800002b6:	fff6c793          	not	a5,a3
    800002ba:	9fb9                	addw	a5,a5,a4
    800002bc:	010787bb          	addw	a5,a5,a6
    800002c0:	fef048e3          	bgtz	a5,800002b0 <strncpy+0x24>
  return os;
}
    800002c4:	6422                	ld	s0,8(sp)
    800002c6:	0141                	addi	sp,sp,16
    800002c8:	8082                	ret

00000000800002ca <safestrcpy>:

// Like strncpy but guaranteed to NUL-terminate.
char*
safestrcpy(char *s, const char *t, int n)
{
    800002ca:	1141                	addi	sp,sp,-16
    800002cc:	e422                	sd	s0,8(sp)
    800002ce:	0800                	addi	s0,sp,16
  char *os;

  os = s;
  if(n <= 0)
    800002d0:	02c05363          	blez	a2,800002f6 <safestrcpy+0x2c>
    800002d4:	fff6069b          	addiw	a3,a2,-1
    800002d8:	1682                	slli	a3,a3,0x20
    800002da:	9281                	srli	a3,a3,0x20
    800002dc:	96ae                	add	a3,a3,a1
    800002de:	87aa                	mv	a5,a0
    return os;
  while(--n > 0 && (*s++ = *t++) != 0)
    800002e0:	00d58963          	beq	a1,a3,800002f2 <safestrcpy+0x28>
    800002e4:	0585                	addi	a1,a1,1
    800002e6:	0785                	addi	a5,a5,1
    800002e8:	fff5c703          	lbu	a4,-1(a1)
    800002ec:	fee78fa3          	sb	a4,-1(a5)
    800002f0:	fb65                	bnez	a4,800002e0 <safestrcpy+0x16>
    ;
  *s = 0;
    800002f2:	00078023          	sb	zero,0(a5)
  return os;
}
    800002f6:	6422                	ld	s0,8(sp)
    800002f8:	0141                	addi	sp,sp,16
    800002fa:	8082                	ret

00000000800002fc <strlen>:

int
strlen(const char *s)
{
    800002fc:	1141                	addi	sp,sp,-16
    800002fe:	e422                	sd	s0,8(sp)
    80000300:	0800                	addi	s0,sp,16
  int n;

  for(n = 0; s[n]; n++)
    80000302:	00054783          	lbu	a5,0(a0)
    80000306:	cf91                	beqz	a5,80000322 <strlen+0x26>
    80000308:	0505                	addi	a0,a0,1
    8000030a:	87aa                	mv	a5,a0
    8000030c:	4685                	li	a3,1
    8000030e:	9e89                	subw	a3,a3,a0
    80000310:	00f6853b          	addw	a0,a3,a5
    80000314:	0785                	addi	a5,a5,1
    80000316:	fff7c703          	lbu	a4,-1(a5)
    8000031a:	fb7d                	bnez	a4,80000310 <strlen+0x14>
    ;
  return n;
}
    8000031c:	6422                	ld	s0,8(sp)
    8000031e:	0141                	addi	sp,sp,16
    80000320:	8082                	ret
  for(n = 0; s[n]; n++)
    80000322:	4501                	li	a0,0
    80000324:	bfe5                	j	8000031c <strlen+0x20>

0000000080000326 <main>:
volatile static int started = 0;

// start() jumps here in supervisor mode on all CPUs.
void
main()
{
    80000326:	1141                	addi	sp,sp,-16
    80000328:	e406                	sd	ra,8(sp)
    8000032a:	e022                	sd	s0,0(sp)
    8000032c:	0800                	addi	s0,sp,16
  if(cpuid() == 0){
    8000032e:	00001097          	auipc	ra,0x1
    80000332:	b08080e7          	jalr	-1272(ra) # 80000e36 <cpuid>
    virtio_disk_init(); // emulated hard disk
    userinit();      // first user process
    __sync_synchronize();
    started = 1;
  } else {
    while(started == 0)
    80000336:	00008717          	auipc	a4,0x8
    8000033a:	79a70713          	addi	a4,a4,1946 # 80008ad0 <started>
  if(cpuid() == 0){
    8000033e:	c139                	beqz	a0,80000384 <main+0x5e>
    while(started == 0)
    80000340:	431c                	lw	a5,0(a4)
    80000342:	2781                	sext.w	a5,a5
    80000344:	dff5                	beqz	a5,80000340 <main+0x1a>
      ;
    __sync_synchronize();
    80000346:	0ff0000f          	fence
    printf("hart %d starting\n", cpuid());
    8000034a:	00001097          	auipc	ra,0x1
    8000034e:	aec080e7          	jalr	-1300(ra) # 80000e36 <cpuid>
    80000352:	85aa                	mv	a1,a0
    80000354:	00008517          	auipc	a0,0x8
    80000358:	ce450513          	addi	a0,a0,-796 # 80008038 <etext+0x38>
    8000035c:	00006097          	auipc	ra,0x6
    80000360:	d20080e7          	jalr	-736(ra) # 8000607c <printf>
    kvminithart();    // turn on paging
    80000364:	00000097          	auipc	ra,0x0
    80000368:	0d8080e7          	jalr	216(ra) # 8000043c <kvminithart>
    trapinithart();   // install kernel trap vector
    8000036c:	00001097          	auipc	ra,0x1
    80000370:	78e080e7          	jalr	1934(ra) # 80001afa <trapinithart>
    plicinithart();   // ask PLIC for device interrupts
    80000374:	00005097          	auipc	ra,0x5
    80000378:	15c080e7          	jalr	348(ra) # 800054d0 <plicinithart>
  }

  scheduler();        
    8000037c:	00001097          	auipc	ra,0x1
    80000380:	fd8080e7          	jalr	-40(ra) # 80001354 <scheduler>
    consoleinit();
    80000384:	00006097          	auipc	ra,0x6
    80000388:	bc0080e7          	jalr	-1088(ra) # 80005f44 <consoleinit>
    printfinit();
    8000038c:	00006097          	auipc	ra,0x6
    80000390:	ed6080e7          	jalr	-298(ra) # 80006262 <printfinit>
    printf("\n");
    80000394:	00008517          	auipc	a0,0x8
    80000398:	cb450513          	addi	a0,a0,-844 # 80008048 <etext+0x48>
    8000039c:	00006097          	auipc	ra,0x6
    800003a0:	ce0080e7          	jalr	-800(ra) # 8000607c <printf>
    printf("xv6 kernel is booting\n");
    800003a4:	00008517          	auipc	a0,0x8
    800003a8:	c7c50513          	addi	a0,a0,-900 # 80008020 <etext+0x20>
    800003ac:	00006097          	auipc	ra,0x6
    800003b0:	cd0080e7          	jalr	-816(ra) # 8000607c <printf>
    printf("\n");
    800003b4:	00008517          	auipc	a0,0x8
    800003b8:	c9450513          	addi	a0,a0,-876 # 80008048 <etext+0x48>
    800003bc:	00006097          	auipc	ra,0x6
    800003c0:	cc0080e7          	jalr	-832(ra) # 8000607c <printf>
    kinit();         // physical page allocator
    800003c4:	00000097          	auipc	ra,0x0
    800003c8:	d18080e7          	jalr	-744(ra) # 800000dc <kinit>
    kvminit();       // create kernel page table
    800003cc:	00000097          	auipc	ra,0x0
    800003d0:	34a080e7          	jalr	842(ra) # 80000716 <kvminit>
    kvminithart();   // turn on paging
    800003d4:	00000097          	auipc	ra,0x0
    800003d8:	068080e7          	jalr	104(ra) # 8000043c <kvminithart>
    procinit();      // process table
    800003dc:	00001097          	auipc	ra,0x1
    800003e0:	9a6080e7          	jalr	-1626(ra) # 80000d82 <procinit>
    trapinit();      // trap vectors
    800003e4:	00001097          	auipc	ra,0x1
    800003e8:	6ee080e7          	jalr	1774(ra) # 80001ad2 <trapinit>
    trapinithart();  // install kernel trap vector
    800003ec:	00001097          	auipc	ra,0x1
    800003f0:	70e080e7          	jalr	1806(ra) # 80001afa <trapinithart>
    plicinit();      // set up interrupt controller
    800003f4:	00005097          	auipc	ra,0x5
    800003f8:	0c6080e7          	jalr	198(ra) # 800054ba <plicinit>
    plicinithart();  // ask PLIC for device interrupts
    800003fc:	00005097          	auipc	ra,0x5
    80000400:	0d4080e7          	jalr	212(ra) # 800054d0 <plicinithart>
    binit();         // buffer cache
    80000404:	00002097          	auipc	ra,0x2
    80000408:	f2a080e7          	jalr	-214(ra) # 8000232e <binit>
    iinit();         // inode table
    8000040c:	00002097          	auipc	ra,0x2
    80000410:	5ce080e7          	jalr	1486(ra) # 800029da <iinit>
    fileinit();      // file table
    80000414:	00003097          	auipc	ra,0x3
    80000418:	56c080e7          	jalr	1388(ra) # 80003980 <fileinit>
    virtio_disk_init(); // emulated hard disk
    8000041c:	00005097          	auipc	ra,0x5
    80000420:	1bc080e7          	jalr	444(ra) # 800055d8 <virtio_disk_init>
    userinit();      // first user process
    80000424:	00001097          	auipc	ra,0x1
    80000428:	d16080e7          	jalr	-746(ra) # 8000113a <userinit>
    __sync_synchronize();
    8000042c:	0ff0000f          	fence
    started = 1;
    80000430:	4785                	li	a5,1
    80000432:	00008717          	auipc	a4,0x8
    80000436:	68f72f23          	sw	a5,1694(a4) # 80008ad0 <started>
    8000043a:	b789                	j	8000037c <main+0x56>

000000008000043c <kvminithart>:
}

// Switch h/w page table register to the kernel's page table,
// and enable paging.
void kvminithart()
{
    8000043c:	1141                	addi	sp,sp,-16
    8000043e:	e422                	sd	s0,8(sp)
    80000440:	0800                	addi	s0,sp,16
// flush the TLB.
static inline void
sfence_vma()
{
  // the zero, zero means flush all TLB entries.
  asm volatile("sfence.vma zero, zero");
    80000442:	12000073          	sfence.vma
    // wait for any previous writes to the page table memory to finish.
    sfence_vma();

    w_satp(MAKE_SATP(kernel_pagetable));
    80000446:	00008797          	auipc	a5,0x8
    8000044a:	6927b783          	ld	a5,1682(a5) # 80008ad8 <kernel_pagetable>
    8000044e:	83b1                	srli	a5,a5,0xc
    80000450:	577d                	li	a4,-1
    80000452:	177e                	slli	a4,a4,0x3f
    80000454:	8fd9                	or	a5,a5,a4
  asm volatile("csrw satp, %0" : : "r" (x));
    80000456:	18079073          	csrw	satp,a5
  asm volatile("sfence.vma zero, zero");
    8000045a:	12000073          	sfence.vma

    // flush stale entries from the TLB.
    sfence_vma();
}
    8000045e:	6422                	ld	s0,8(sp)
    80000460:	0141                	addi	sp,sp,16
    80000462:	8082                	ret

0000000080000464 <walk>:
//   21..29 -- 9 bits of level-1 index.
//   12..20 -- 9 bits of level-0 index.
//    0..11 -- 12 bits of byte offset within the page.
pte_t *
walk(pagetable_t pagetable, uint64 va, int alloc)
{
    80000464:	7139                	addi	sp,sp,-64
    80000466:	fc06                	sd	ra,56(sp)
    80000468:	f822                	sd	s0,48(sp)
    8000046a:	f426                	sd	s1,40(sp)
    8000046c:	f04a                	sd	s2,32(sp)
    8000046e:	ec4e                	sd	s3,24(sp)
    80000470:	e852                	sd	s4,16(sp)
    80000472:	e456                	sd	s5,8(sp)
    80000474:	e05a                	sd	s6,0(sp)
    80000476:	0080                	addi	s0,sp,64
    80000478:	84aa                	mv	s1,a0
    8000047a:	89ae                	mv	s3,a1
    8000047c:	8ab2                	mv	s5,a2
    if (va >= MAXVA)
    8000047e:	57fd                	li	a5,-1
    80000480:	83e9                	srli	a5,a5,0x1a
    80000482:	4a79                	li	s4,30
        panic("walk");

    for (int level = 2; level > 0; level--)
    80000484:	4b31                	li	s6,12
    if (va >= MAXVA)
    80000486:	04b7f263          	bgeu	a5,a1,800004ca <walk+0x66>
        panic("walk");
    8000048a:	00008517          	auipc	a0,0x8
    8000048e:	bc650513          	addi	a0,a0,-1082 # 80008050 <etext+0x50>
    80000492:	00006097          	auipc	ra,0x6
    80000496:	ba0080e7          	jalr	-1120(ra) # 80006032 <panic>
        {
            pagetable = (pagetable_t)PTE2PA(*pte);
        }
        else
        {
            if (!alloc || (pagetable = (pde_t *)kalloc()) == 0)
    8000049a:	060a8663          	beqz	s5,80000506 <walk+0xa2>
    8000049e:	00000097          	auipc	ra,0x0
    800004a2:	c7a080e7          	jalr	-902(ra) # 80000118 <kalloc>
    800004a6:	84aa                	mv	s1,a0
    800004a8:	c529                	beqz	a0,800004f2 <walk+0x8e>
                return 0;
            memset(pagetable, 0, PGSIZE);
    800004aa:	6605                	lui	a2,0x1
    800004ac:	4581                	li	a1,0
    800004ae:	00000097          	auipc	ra,0x0
    800004b2:	cca080e7          	jalr	-822(ra) # 80000178 <memset>
            *pte = PA2PTE(pagetable) | PTE_V;
    800004b6:	00c4d793          	srli	a5,s1,0xc
    800004ba:	07aa                	slli	a5,a5,0xa
    800004bc:	0017e793          	ori	a5,a5,1
    800004c0:	00f93023          	sd	a5,0(s2)
    for (int level = 2; level > 0; level--)
    800004c4:	3a5d                	addiw	s4,s4,-9
    800004c6:	036a0063          	beq	s4,s6,800004e6 <walk+0x82>
        pte_t *pte = &pagetable[PX(level, va)];
    800004ca:	0149d933          	srl	s2,s3,s4
    800004ce:	1ff97913          	andi	s2,s2,511
    800004d2:	090e                	slli	s2,s2,0x3
    800004d4:	9926                	add	s2,s2,s1
        if (*pte & PTE_V)
    800004d6:	00093483          	ld	s1,0(s2)
    800004da:	0014f793          	andi	a5,s1,1
    800004de:	dfd5                	beqz	a5,8000049a <walk+0x36>
            pagetable = (pagetable_t)PTE2PA(*pte);
    800004e0:	80a9                	srli	s1,s1,0xa
    800004e2:	04b2                	slli	s1,s1,0xc
    800004e4:	b7c5                	j	800004c4 <walk+0x60>
        }
    }
    return &pagetable[PX(0, va)];
    800004e6:	00c9d513          	srli	a0,s3,0xc
    800004ea:	1ff57513          	andi	a0,a0,511
    800004ee:	050e                	slli	a0,a0,0x3
    800004f0:	9526                	add	a0,a0,s1
}
    800004f2:	70e2                	ld	ra,56(sp)
    800004f4:	7442                	ld	s0,48(sp)
    800004f6:	74a2                	ld	s1,40(sp)
    800004f8:	7902                	ld	s2,32(sp)
    800004fa:	69e2                	ld	s3,24(sp)
    800004fc:	6a42                	ld	s4,16(sp)
    800004fe:	6aa2                	ld	s5,8(sp)
    80000500:	6b02                	ld	s6,0(sp)
    80000502:	6121                	addi	sp,sp,64
    80000504:	8082                	ret
                return 0;
    80000506:	4501                	li	a0,0
    80000508:	b7ed                	j	800004f2 <walk+0x8e>

000000008000050a <walkaddr>:
walkaddr(pagetable_t pagetable, uint64 va)
{
    pte_t *pte;
    uint64 pa;

    if (va >= MAXVA)
    8000050a:	57fd                	li	a5,-1
    8000050c:	83e9                	srli	a5,a5,0x1a
    8000050e:	00b7f463          	bgeu	a5,a1,80000516 <walkaddr+0xc>
        return 0;
    80000512:	4501                	li	a0,0
        return 0;
    if ((*pte & PTE_U) == 0)
        return 0;
    pa = PTE2PA(*pte);
    return pa;
}
    80000514:	8082                	ret
{
    80000516:	1141                	addi	sp,sp,-16
    80000518:	e406                	sd	ra,8(sp)
    8000051a:	e022                	sd	s0,0(sp)
    8000051c:	0800                	addi	s0,sp,16
    pte = walk(pagetable, va, 0);
    8000051e:	4601                	li	a2,0
    80000520:	00000097          	auipc	ra,0x0
    80000524:	f44080e7          	jalr	-188(ra) # 80000464 <walk>
    if (pte == 0)
    80000528:	c105                	beqz	a0,80000548 <walkaddr+0x3e>
    if ((*pte & PTE_V) == 0)
    8000052a:	611c                	ld	a5,0(a0)
    if ((*pte & PTE_U) == 0)
    8000052c:	0117f693          	andi	a3,a5,17
    80000530:	4745                	li	a4,17
        return 0;
    80000532:	4501                	li	a0,0
    if ((*pte & PTE_U) == 0)
    80000534:	00e68663          	beq	a3,a4,80000540 <walkaddr+0x36>
}
    80000538:	60a2                	ld	ra,8(sp)
    8000053a:	6402                	ld	s0,0(sp)
    8000053c:	0141                	addi	sp,sp,16
    8000053e:	8082                	ret
    pa = PTE2PA(*pte);
    80000540:	00a7d513          	srli	a0,a5,0xa
    80000544:	0532                	slli	a0,a0,0xc
    return pa;
    80000546:	bfcd                	j	80000538 <walkaddr+0x2e>
        return 0;
    80000548:	4501                	li	a0,0
    8000054a:	b7fd                	j	80000538 <walkaddr+0x2e>

000000008000054c <mappages>:
// Create PTEs for virtual addresses starting at va that refer to
// physical addresses starting at pa. va and size might not
// be page-aligned. Returns 0 on success, -1 if walk() couldn't
// allocate a needed page-table page.
int mappages(pagetable_t pagetable, uint64 va, uint64 size, uint64 pa, int perm)
{
    8000054c:	715d                	addi	sp,sp,-80
    8000054e:	e486                	sd	ra,72(sp)
    80000550:	e0a2                	sd	s0,64(sp)
    80000552:	fc26                	sd	s1,56(sp)
    80000554:	f84a                	sd	s2,48(sp)
    80000556:	f44e                	sd	s3,40(sp)
    80000558:	f052                	sd	s4,32(sp)
    8000055a:	ec56                	sd	s5,24(sp)
    8000055c:	e85a                	sd	s6,16(sp)
    8000055e:	e45e                	sd	s7,8(sp)
    80000560:	0880                	addi	s0,sp,80
    uint64 a, last;
    pte_t *pte;

    if (size == 0)
    80000562:	c205                	beqz	a2,80000582 <mappages+0x36>
    80000564:	8aaa                	mv	s5,a0
    80000566:	8b3a                	mv	s6,a4
        panic("mappages: size");

    // printf("[Testing] : size OK\n");
    a = PGROUNDDOWN(va);
    80000568:	77fd                	lui	a5,0xfffff
    8000056a:	00f5fa33          	and	s4,a1,a5
    last = PGROUNDDOWN(va + size - 1);
    8000056e:	15fd                	addi	a1,a1,-1
    80000570:	00c589b3          	add	s3,a1,a2
    80000574:	00f9f9b3          	and	s3,s3,a5
    a = PGROUNDDOWN(va);
    80000578:	8952                	mv	s2,s4
    8000057a:	41468a33          	sub	s4,a3,s4
        *pte = PA2PTE(pa) | perm | PTE_V;

        // printf("[Testing] : new! pte: %d\n", pte);
        if (a == last)
            break;
        a += PGSIZE;
    8000057e:	6b85                	lui	s7,0x1
    80000580:	a0a1                	j	800005c8 <mappages+0x7c>
        panic("mappages: size");
    80000582:	00008517          	auipc	a0,0x8
    80000586:	ad650513          	addi	a0,a0,-1322 # 80008058 <etext+0x58>
    8000058a:	00006097          	auipc	ra,0x6
    8000058e:	aa8080e7          	jalr	-1368(ra) # 80006032 <panic>
            printf("[Testing] : pte: %d\n", pte);
    80000592:	85aa                	mv	a1,a0
    80000594:	00008517          	auipc	a0,0x8
    80000598:	ad450513          	addi	a0,a0,-1324 # 80008068 <etext+0x68>
    8000059c:	00006097          	auipc	ra,0x6
    800005a0:	ae0080e7          	jalr	-1312(ra) # 8000607c <printf>
            printf("[Testing] : PTE_V: %d\n", PTE_V);
    800005a4:	4585                	li	a1,1
    800005a6:	00008517          	auipc	a0,0x8
    800005aa:	ada50513          	addi	a0,a0,-1318 # 80008080 <etext+0x80>
    800005ae:	00006097          	auipc	ra,0x6
    800005b2:	ace080e7          	jalr	-1330(ra) # 8000607c <printf>
            panic("mappages: remap");
    800005b6:	00008517          	auipc	a0,0x8
    800005ba:	ae250513          	addi	a0,a0,-1310 # 80008098 <etext+0x98>
    800005be:	00006097          	auipc	ra,0x6
    800005c2:	a74080e7          	jalr	-1420(ra) # 80006032 <panic>
        a += PGSIZE;
    800005c6:	995e                	add	s2,s2,s7
    for (;;)
    800005c8:	012a04b3          	add	s1,s4,s2
        if ((pte = walk(pagetable, a, 1)) == 0)
    800005cc:	4605                	li	a2,1
    800005ce:	85ca                	mv	a1,s2
    800005d0:	8556                	mv	a0,s5
    800005d2:	00000097          	auipc	ra,0x0
    800005d6:	e92080e7          	jalr	-366(ra) # 80000464 <walk>
    800005da:	cd19                	beqz	a0,800005f8 <mappages+0xac>
        if (*pte & PTE_V)
    800005dc:	611c                	ld	a5,0(a0)
    800005de:	8b85                	andi	a5,a5,1
    800005e0:	fbcd                	bnez	a5,80000592 <mappages+0x46>
        *pte = PA2PTE(pa) | perm | PTE_V;
    800005e2:	80b1                	srli	s1,s1,0xc
    800005e4:	04aa                	slli	s1,s1,0xa
    800005e6:	0164e4b3          	or	s1,s1,s6
    800005ea:	0014e493          	ori	s1,s1,1
    800005ee:	e104                	sd	s1,0(a0)
        if (a == last)
    800005f0:	fd391be3          	bne	s2,s3,800005c6 <mappages+0x7a>
        pa += PGSIZE;
    }
    // printf("[Testing] : return 0\n");
    return 0;
    800005f4:	4501                	li	a0,0
    800005f6:	a011                	j	800005fa <mappages+0xae>
            return -1;
    800005f8:	557d                	li	a0,-1
}
    800005fa:	60a6                	ld	ra,72(sp)
    800005fc:	6406                	ld	s0,64(sp)
    800005fe:	74e2                	ld	s1,56(sp)
    80000600:	7942                	ld	s2,48(sp)
    80000602:	79a2                	ld	s3,40(sp)
    80000604:	7a02                	ld	s4,32(sp)
    80000606:	6ae2                	ld	s5,24(sp)
    80000608:	6b42                	ld	s6,16(sp)
    8000060a:	6ba2                	ld	s7,8(sp)
    8000060c:	6161                	addi	sp,sp,80
    8000060e:	8082                	ret

0000000080000610 <kvmmap>:
{
    80000610:	1141                	addi	sp,sp,-16
    80000612:	e406                	sd	ra,8(sp)
    80000614:	e022                	sd	s0,0(sp)
    80000616:	0800                	addi	s0,sp,16
    80000618:	87b6                	mv	a5,a3
    if (mappages(kpgtbl, va, sz, pa, perm) != 0)
    8000061a:	86b2                	mv	a3,a2
    8000061c:	863e                	mv	a2,a5
    8000061e:	00000097          	auipc	ra,0x0
    80000622:	f2e080e7          	jalr	-210(ra) # 8000054c <mappages>
    80000626:	e509                	bnez	a0,80000630 <kvmmap+0x20>
}
    80000628:	60a2                	ld	ra,8(sp)
    8000062a:	6402                	ld	s0,0(sp)
    8000062c:	0141                	addi	sp,sp,16
    8000062e:	8082                	ret
        panic("kvmmap");
    80000630:	00008517          	auipc	a0,0x8
    80000634:	a7850513          	addi	a0,a0,-1416 # 800080a8 <etext+0xa8>
    80000638:	00006097          	auipc	ra,0x6
    8000063c:	9fa080e7          	jalr	-1542(ra) # 80006032 <panic>

0000000080000640 <kvmmake>:
{
    80000640:	1101                	addi	sp,sp,-32
    80000642:	ec06                	sd	ra,24(sp)
    80000644:	e822                	sd	s0,16(sp)
    80000646:	e426                	sd	s1,8(sp)
    80000648:	e04a                	sd	s2,0(sp)
    8000064a:	1000                	addi	s0,sp,32
    kpgtbl = (pagetable_t)kalloc();
    8000064c:	00000097          	auipc	ra,0x0
    80000650:	acc080e7          	jalr	-1332(ra) # 80000118 <kalloc>
    80000654:	84aa                	mv	s1,a0
    memset(kpgtbl, 0, PGSIZE);
    80000656:	6605                	lui	a2,0x1
    80000658:	4581                	li	a1,0
    8000065a:	00000097          	auipc	ra,0x0
    8000065e:	b1e080e7          	jalr	-1250(ra) # 80000178 <memset>
    kvmmap(kpgtbl, UART0, UART0, PGSIZE, PTE_R | PTE_W);
    80000662:	4719                	li	a4,6
    80000664:	6685                	lui	a3,0x1
    80000666:	10000637          	lui	a2,0x10000
    8000066a:	100005b7          	lui	a1,0x10000
    8000066e:	8526                	mv	a0,s1
    80000670:	00000097          	auipc	ra,0x0
    80000674:	fa0080e7          	jalr	-96(ra) # 80000610 <kvmmap>
    kvmmap(kpgtbl, VIRTIO0, VIRTIO0, PGSIZE, PTE_R | PTE_W);
    80000678:	4719                	li	a4,6
    8000067a:	6685                	lui	a3,0x1
    8000067c:	10001637          	lui	a2,0x10001
    80000680:	100015b7          	lui	a1,0x10001
    80000684:	8526                	mv	a0,s1
    80000686:	00000097          	auipc	ra,0x0
    8000068a:	f8a080e7          	jalr	-118(ra) # 80000610 <kvmmap>
    kvmmap(kpgtbl, PLIC, PLIC, 0x400000, PTE_R | PTE_W);
    8000068e:	4719                	li	a4,6
    80000690:	004006b7          	lui	a3,0x400
    80000694:	0c000637          	lui	a2,0xc000
    80000698:	0c0005b7          	lui	a1,0xc000
    8000069c:	8526                	mv	a0,s1
    8000069e:	00000097          	auipc	ra,0x0
    800006a2:	f72080e7          	jalr	-142(ra) # 80000610 <kvmmap>
    kvmmap(kpgtbl, KERNBASE, KERNBASE, (uint64)etext - KERNBASE, PTE_R | PTE_X);
    800006a6:	00008917          	auipc	s2,0x8
    800006aa:	95a90913          	addi	s2,s2,-1702 # 80008000 <etext>
    800006ae:	4729                	li	a4,10
    800006b0:	80008697          	auipc	a3,0x80008
    800006b4:	95068693          	addi	a3,a3,-1712 # 8000 <_entry-0x7fff8000>
    800006b8:	4605                	li	a2,1
    800006ba:	067e                	slli	a2,a2,0x1f
    800006bc:	85b2                	mv	a1,a2
    800006be:	8526                	mv	a0,s1
    800006c0:	00000097          	auipc	ra,0x0
    800006c4:	f50080e7          	jalr	-176(ra) # 80000610 <kvmmap>
    kvmmap(kpgtbl, (uint64)etext, (uint64)etext, PHYSTOP - (uint64)etext, PTE_R | PTE_W);
    800006c8:	4719                	li	a4,6
    800006ca:	46c5                	li	a3,17
    800006cc:	06ee                	slli	a3,a3,0x1b
    800006ce:	412686b3          	sub	a3,a3,s2
    800006d2:	864a                	mv	a2,s2
    800006d4:	85ca                	mv	a1,s2
    800006d6:	8526                	mv	a0,s1
    800006d8:	00000097          	auipc	ra,0x0
    800006dc:	f38080e7          	jalr	-200(ra) # 80000610 <kvmmap>
    kvmmap(kpgtbl, TRAMPOLINE, (uint64)trampoline, PGSIZE, PTE_R | PTE_X);
    800006e0:	4729                	li	a4,10
    800006e2:	6685                	lui	a3,0x1
    800006e4:	00007617          	auipc	a2,0x7
    800006e8:	91c60613          	addi	a2,a2,-1764 # 80007000 <_trampoline>
    800006ec:	040005b7          	lui	a1,0x4000
    800006f0:	15fd                	addi	a1,a1,-1
    800006f2:	05b2                	slli	a1,a1,0xc
    800006f4:	8526                	mv	a0,s1
    800006f6:	00000097          	auipc	ra,0x0
    800006fa:	f1a080e7          	jalr	-230(ra) # 80000610 <kvmmap>
    proc_mapstacks(kpgtbl);
    800006fe:	8526                	mv	a0,s1
    80000700:	00000097          	auipc	ra,0x0
    80000704:	5ec080e7          	jalr	1516(ra) # 80000cec <proc_mapstacks>
}
    80000708:	8526                	mv	a0,s1
    8000070a:	60e2                	ld	ra,24(sp)
    8000070c:	6442                	ld	s0,16(sp)
    8000070e:	64a2                	ld	s1,8(sp)
    80000710:	6902                	ld	s2,0(sp)
    80000712:	6105                	addi	sp,sp,32
    80000714:	8082                	ret

0000000080000716 <kvminit>:
{
    80000716:	1141                	addi	sp,sp,-16
    80000718:	e406                	sd	ra,8(sp)
    8000071a:	e022                	sd	s0,0(sp)
    8000071c:	0800                	addi	s0,sp,16
    kernel_pagetable = kvmmake();
    8000071e:	00000097          	auipc	ra,0x0
    80000722:	f22080e7          	jalr	-222(ra) # 80000640 <kvmmake>
    80000726:	00008797          	auipc	a5,0x8
    8000072a:	3aa7b923          	sd	a0,946(a5) # 80008ad8 <kernel_pagetable>
}
    8000072e:	60a2                	ld	ra,8(sp)
    80000730:	6402                	ld	s0,0(sp)
    80000732:	0141                	addi	sp,sp,16
    80000734:	8082                	ret

0000000080000736 <uvmunmap>:

// Remove npages of mappings starting from va. va must be
// page-aligned. The mappings must exist.
// Optionally free the physical memory.
void uvmunmap(pagetable_t pagetable, uint64 va, uint64 npages, int do_free)
{
    80000736:	715d                	addi	sp,sp,-80
    80000738:	e486                	sd	ra,72(sp)
    8000073a:	e0a2                	sd	s0,64(sp)
    8000073c:	fc26                	sd	s1,56(sp)
    8000073e:	f84a                	sd	s2,48(sp)
    80000740:	f44e                	sd	s3,40(sp)
    80000742:	f052                	sd	s4,32(sp)
    80000744:	ec56                	sd	s5,24(sp)
    80000746:	e85a                	sd	s6,16(sp)
    80000748:	e45e                	sd	s7,8(sp)
    8000074a:	0880                	addi	s0,sp,80
    uint64 a;
    pte_t *pte;

    if ((va % PGSIZE) != 0)
    8000074c:	03459793          	slli	a5,a1,0x34
    80000750:	e795                	bnez	a5,8000077c <uvmunmap+0x46>
    80000752:	8a2a                	mv	s4,a0
    80000754:	892e                	mv	s2,a1
    80000756:	8b36                	mv	s6,a3
        panic("uvmunmap: not aligned");

    for (a = va; a < va + npages * PGSIZE; a += PGSIZE)
    80000758:	0632                	slli	a2,a2,0xc
    8000075a:	00b609b3          	add	s3,a2,a1
            // if (do_free == -1)
            continue;
            // else
            //   panic("uvmunmap: not mapped");
        }
        if (PTE_FLAGS(*pte) == PTE_V)
    8000075e:	4b85                	li	s7,1
    for (a = va; a < va + npages * PGSIZE; a += PGSIZE)
    80000760:	6a85                	lui	s5,0x1
    80000762:	0735e163          	bltu	a1,s3,800007c4 <uvmunmap+0x8e>
            uint64 pa = PTE2PA(*pte);
            kfree((void *)pa);
        }
        *pte = 0;
    }
}
    80000766:	60a6                	ld	ra,72(sp)
    80000768:	6406                	ld	s0,64(sp)
    8000076a:	74e2                	ld	s1,56(sp)
    8000076c:	7942                	ld	s2,48(sp)
    8000076e:	79a2                	ld	s3,40(sp)
    80000770:	7a02                	ld	s4,32(sp)
    80000772:	6ae2                	ld	s5,24(sp)
    80000774:	6b42                	ld	s6,16(sp)
    80000776:	6ba2                	ld	s7,8(sp)
    80000778:	6161                	addi	sp,sp,80
    8000077a:	8082                	ret
        panic("uvmunmap: not aligned");
    8000077c:	00008517          	auipc	a0,0x8
    80000780:	93450513          	addi	a0,a0,-1740 # 800080b0 <etext+0xb0>
    80000784:	00006097          	auipc	ra,0x6
    80000788:	8ae080e7          	jalr	-1874(ra) # 80006032 <panic>
            panic("uvmunmap: walk");
    8000078c:	00008517          	auipc	a0,0x8
    80000790:	93c50513          	addi	a0,a0,-1732 # 800080c8 <etext+0xc8>
    80000794:	00006097          	auipc	ra,0x6
    80000798:	89e080e7          	jalr	-1890(ra) # 80006032 <panic>
            panic("uvmunmap: not a leaf");
    8000079c:	00008517          	auipc	a0,0x8
    800007a0:	93c50513          	addi	a0,a0,-1732 # 800080d8 <etext+0xd8>
    800007a4:	00006097          	auipc	ra,0x6
    800007a8:	88e080e7          	jalr	-1906(ra) # 80006032 <panic>
            uint64 pa = PTE2PA(*pte);
    800007ac:	83a9                	srli	a5,a5,0xa
            kfree((void *)pa);
    800007ae:	00c79513          	slli	a0,a5,0xc
    800007b2:	00000097          	auipc	ra,0x0
    800007b6:	86a080e7          	jalr	-1942(ra) # 8000001c <kfree>
        *pte = 0;
    800007ba:	0004b023          	sd	zero,0(s1)
    for (a = va; a < va + npages * PGSIZE; a += PGSIZE)
    800007be:	9956                	add	s2,s2,s5
    800007c0:	fb3973e3          	bgeu	s2,s3,80000766 <uvmunmap+0x30>
        if ((pte = walk(pagetable, a, 0)) == 0)
    800007c4:	4601                	li	a2,0
    800007c6:	85ca                	mv	a1,s2
    800007c8:	8552                	mv	a0,s4
    800007ca:	00000097          	auipc	ra,0x0
    800007ce:	c9a080e7          	jalr	-870(ra) # 80000464 <walk>
    800007d2:	84aa                	mv	s1,a0
    800007d4:	dd45                	beqz	a0,8000078c <uvmunmap+0x56>
        if ((*pte & PTE_V) == 0)
    800007d6:	611c                	ld	a5,0(a0)
    800007d8:	0017f713          	andi	a4,a5,1
    800007dc:	d36d                	beqz	a4,800007be <uvmunmap+0x88>
        if (PTE_FLAGS(*pte) == PTE_V)
    800007de:	3ff7f713          	andi	a4,a5,1023
    800007e2:	fb770de3          	beq	a4,s7,8000079c <uvmunmap+0x66>
        if (do_free)
    800007e6:	fc0b0ae3          	beqz	s6,800007ba <uvmunmap+0x84>
    800007ea:	b7c9                	j	800007ac <uvmunmap+0x76>

00000000800007ec <uvmcreate>:

// create an empty user page table.
// returns 0 if out of memory.
pagetable_t
uvmcreate()
{
    800007ec:	1101                	addi	sp,sp,-32
    800007ee:	ec06                	sd	ra,24(sp)
    800007f0:	e822                	sd	s0,16(sp)
    800007f2:	e426                	sd	s1,8(sp)
    800007f4:	1000                	addi	s0,sp,32
    pagetable_t pagetable;
    pagetable = (pagetable_t)kalloc();
    800007f6:	00000097          	auipc	ra,0x0
    800007fa:	922080e7          	jalr	-1758(ra) # 80000118 <kalloc>
    800007fe:	84aa                	mv	s1,a0
    if (pagetable == 0)
    80000800:	c519                	beqz	a0,8000080e <uvmcreate+0x22>
        return 0;
    memset(pagetable, 0, PGSIZE);
    80000802:	6605                	lui	a2,0x1
    80000804:	4581                	li	a1,0
    80000806:	00000097          	auipc	ra,0x0
    8000080a:	972080e7          	jalr	-1678(ra) # 80000178 <memset>
    return pagetable;
}
    8000080e:	8526                	mv	a0,s1
    80000810:	60e2                	ld	ra,24(sp)
    80000812:	6442                	ld	s0,16(sp)
    80000814:	64a2                	ld	s1,8(sp)
    80000816:	6105                	addi	sp,sp,32
    80000818:	8082                	ret

000000008000081a <uvmfirst>:

// Load the user initcode into address 0 of pagetable,
// for the very first process.
// sz must be less than a page.
void uvmfirst(pagetable_t pagetable, uchar *src, uint sz)
{
    8000081a:	7179                	addi	sp,sp,-48
    8000081c:	f406                	sd	ra,40(sp)
    8000081e:	f022                	sd	s0,32(sp)
    80000820:	ec26                	sd	s1,24(sp)
    80000822:	e84a                	sd	s2,16(sp)
    80000824:	e44e                	sd	s3,8(sp)
    80000826:	e052                	sd	s4,0(sp)
    80000828:	1800                	addi	s0,sp,48
    char *mem;

    if (sz >= PGSIZE)
    8000082a:	6785                	lui	a5,0x1
    8000082c:	04f67863          	bgeu	a2,a5,8000087c <uvmfirst+0x62>
    80000830:	8a2a                	mv	s4,a0
    80000832:	89ae                	mv	s3,a1
    80000834:	84b2                	mv	s1,a2
        panic("uvmfirst: more than a page");
    mem = kalloc();
    80000836:	00000097          	auipc	ra,0x0
    8000083a:	8e2080e7          	jalr	-1822(ra) # 80000118 <kalloc>
    8000083e:	892a                	mv	s2,a0
    memset(mem, 0, PGSIZE);
    80000840:	6605                	lui	a2,0x1
    80000842:	4581                	li	a1,0
    80000844:	00000097          	auipc	ra,0x0
    80000848:	934080e7          	jalr	-1740(ra) # 80000178 <memset>
    mappages(pagetable, 0, PGSIZE, (uint64)mem, PTE_W | PTE_R | PTE_X | PTE_U);
    8000084c:	4779                	li	a4,30
    8000084e:	86ca                	mv	a3,s2
    80000850:	6605                	lui	a2,0x1
    80000852:	4581                	li	a1,0
    80000854:	8552                	mv	a0,s4
    80000856:	00000097          	auipc	ra,0x0
    8000085a:	cf6080e7          	jalr	-778(ra) # 8000054c <mappages>
    memmove(mem, src, sz);
    8000085e:	8626                	mv	a2,s1
    80000860:	85ce                	mv	a1,s3
    80000862:	854a                	mv	a0,s2
    80000864:	00000097          	auipc	ra,0x0
    80000868:	974080e7          	jalr	-1676(ra) # 800001d8 <memmove>
}
    8000086c:	70a2                	ld	ra,40(sp)
    8000086e:	7402                	ld	s0,32(sp)
    80000870:	64e2                	ld	s1,24(sp)
    80000872:	6942                	ld	s2,16(sp)
    80000874:	69a2                	ld	s3,8(sp)
    80000876:	6a02                	ld	s4,0(sp)
    80000878:	6145                	addi	sp,sp,48
    8000087a:	8082                	ret
        panic("uvmfirst: more than a page");
    8000087c:	00008517          	auipc	a0,0x8
    80000880:	87450513          	addi	a0,a0,-1932 # 800080f0 <etext+0xf0>
    80000884:	00005097          	auipc	ra,0x5
    80000888:	7ae080e7          	jalr	1966(ra) # 80006032 <panic>

000000008000088c <uvmdealloc>:
// newsz.  oldsz and newsz need not be page-aligned, nor does newsz
// need to be less than oldsz.  oldsz can be larger than the actual
// process size.  Returns the new process size.
uint64
uvmdealloc(pagetable_t pagetable, uint64 oldsz, uint64 newsz)
{
    8000088c:	1101                	addi	sp,sp,-32
    8000088e:	ec06                	sd	ra,24(sp)
    80000890:	e822                	sd	s0,16(sp)
    80000892:	e426                	sd	s1,8(sp)
    80000894:	1000                	addi	s0,sp,32
    if (newsz >= oldsz)
        return oldsz;
    80000896:	84ae                	mv	s1,a1
    if (newsz >= oldsz)
    80000898:	00b67d63          	bgeu	a2,a1,800008b2 <uvmdealloc+0x26>
    8000089c:	84b2                	mv	s1,a2

    if (PGROUNDUP(newsz) < PGROUNDUP(oldsz))
    8000089e:	6785                	lui	a5,0x1
    800008a0:	17fd                	addi	a5,a5,-1
    800008a2:	00f60733          	add	a4,a2,a5
    800008a6:	767d                	lui	a2,0xfffff
    800008a8:	8f71                	and	a4,a4,a2
    800008aa:	97ae                	add	a5,a5,a1
    800008ac:	8ff1                	and	a5,a5,a2
    800008ae:	00f76863          	bltu	a4,a5,800008be <uvmdealloc+0x32>
        int npages = (PGROUNDUP(oldsz) - PGROUNDUP(newsz)) / PGSIZE;
        uvmunmap(pagetable, PGROUNDUP(newsz), npages, 1);
    }

    return newsz;
}
    800008b2:	8526                	mv	a0,s1
    800008b4:	60e2                	ld	ra,24(sp)
    800008b6:	6442                	ld	s0,16(sp)
    800008b8:	64a2                	ld	s1,8(sp)
    800008ba:	6105                	addi	sp,sp,32
    800008bc:	8082                	ret
        int npages = (PGROUNDUP(oldsz) - PGROUNDUP(newsz)) / PGSIZE;
    800008be:	8f99                	sub	a5,a5,a4
    800008c0:	83b1                	srli	a5,a5,0xc
        uvmunmap(pagetable, PGROUNDUP(newsz), npages, 1);
    800008c2:	4685                	li	a3,1
    800008c4:	0007861b          	sext.w	a2,a5
    800008c8:	85ba                	mv	a1,a4
    800008ca:	00000097          	auipc	ra,0x0
    800008ce:	e6c080e7          	jalr	-404(ra) # 80000736 <uvmunmap>
    800008d2:	b7c5                	j	800008b2 <uvmdealloc+0x26>

00000000800008d4 <uvmalloc>:
    if (newsz < oldsz)
    800008d4:	0ab66563          	bltu	a2,a1,8000097e <uvmalloc+0xaa>
{
    800008d8:	7139                	addi	sp,sp,-64
    800008da:	fc06                	sd	ra,56(sp)
    800008dc:	f822                	sd	s0,48(sp)
    800008de:	f426                	sd	s1,40(sp)
    800008e0:	f04a                	sd	s2,32(sp)
    800008e2:	ec4e                	sd	s3,24(sp)
    800008e4:	e852                	sd	s4,16(sp)
    800008e6:	e456                	sd	s5,8(sp)
    800008e8:	e05a                	sd	s6,0(sp)
    800008ea:	0080                	addi	s0,sp,64
    800008ec:	8aaa                	mv	s5,a0
    800008ee:	8a32                	mv	s4,a2
    oldsz = PGROUNDUP(oldsz);
    800008f0:	6985                	lui	s3,0x1
    800008f2:	19fd                	addi	s3,s3,-1
    800008f4:	95ce                	add	a1,a1,s3
    800008f6:	79fd                	lui	s3,0xfffff
    800008f8:	0135f9b3          	and	s3,a1,s3
    for (a = oldsz; a < newsz; a += PGSIZE)
    800008fc:	08c9f363          	bgeu	s3,a2,80000982 <uvmalloc+0xae>
    80000900:	894e                	mv	s2,s3
        if (mappages(pagetable, a, PGSIZE, (uint64)mem, PTE_R | PTE_U | xperm) != 0)
    80000902:	0126eb13          	ori	s6,a3,18
        mem = kalloc();
    80000906:	00000097          	auipc	ra,0x0
    8000090a:	812080e7          	jalr	-2030(ra) # 80000118 <kalloc>
    8000090e:	84aa                	mv	s1,a0
        if (mem == 0)
    80000910:	c51d                	beqz	a0,8000093e <uvmalloc+0x6a>
        memset(mem, 0, PGSIZE);
    80000912:	6605                	lui	a2,0x1
    80000914:	4581                	li	a1,0
    80000916:	00000097          	auipc	ra,0x0
    8000091a:	862080e7          	jalr	-1950(ra) # 80000178 <memset>
        if (mappages(pagetable, a, PGSIZE, (uint64)mem, PTE_R | PTE_U | xperm) != 0)
    8000091e:	875a                	mv	a4,s6
    80000920:	86a6                	mv	a3,s1
    80000922:	6605                	lui	a2,0x1
    80000924:	85ca                	mv	a1,s2
    80000926:	8556                	mv	a0,s5
    80000928:	00000097          	auipc	ra,0x0
    8000092c:	c24080e7          	jalr	-988(ra) # 8000054c <mappages>
    80000930:	e90d                	bnez	a0,80000962 <uvmalloc+0x8e>
    for (a = oldsz; a < newsz; a += PGSIZE)
    80000932:	6785                	lui	a5,0x1
    80000934:	993e                	add	s2,s2,a5
    80000936:	fd4968e3          	bltu	s2,s4,80000906 <uvmalloc+0x32>
    return newsz;
    8000093a:	8552                	mv	a0,s4
    8000093c:	a809                	j	8000094e <uvmalloc+0x7a>
            uvmdealloc(pagetable, a, oldsz);
    8000093e:	864e                	mv	a2,s3
    80000940:	85ca                	mv	a1,s2
    80000942:	8556                	mv	a0,s5
    80000944:	00000097          	auipc	ra,0x0
    80000948:	f48080e7          	jalr	-184(ra) # 8000088c <uvmdealloc>
            return 0;
    8000094c:	4501                	li	a0,0
}
    8000094e:	70e2                	ld	ra,56(sp)
    80000950:	7442                	ld	s0,48(sp)
    80000952:	74a2                	ld	s1,40(sp)
    80000954:	7902                	ld	s2,32(sp)
    80000956:	69e2                	ld	s3,24(sp)
    80000958:	6a42                	ld	s4,16(sp)
    8000095a:	6aa2                	ld	s5,8(sp)
    8000095c:	6b02                	ld	s6,0(sp)
    8000095e:	6121                	addi	sp,sp,64
    80000960:	8082                	ret
            kfree(mem);
    80000962:	8526                	mv	a0,s1
    80000964:	fffff097          	auipc	ra,0xfffff
    80000968:	6b8080e7          	jalr	1720(ra) # 8000001c <kfree>
            uvmdealloc(pagetable, a, oldsz);
    8000096c:	864e                	mv	a2,s3
    8000096e:	85ca                	mv	a1,s2
    80000970:	8556                	mv	a0,s5
    80000972:	00000097          	auipc	ra,0x0
    80000976:	f1a080e7          	jalr	-230(ra) # 8000088c <uvmdealloc>
            return 0;
    8000097a:	4501                	li	a0,0
    8000097c:	bfc9                	j	8000094e <uvmalloc+0x7a>
        return oldsz;
    8000097e:	852e                	mv	a0,a1
}
    80000980:	8082                	ret
    return newsz;
    80000982:	8532                	mv	a0,a2
    80000984:	b7e9                	j	8000094e <uvmalloc+0x7a>

0000000080000986 <freewalk>:

// Recursively free page-table pages.
// All leaf mappings must already have been removed.
void freewalk(pagetable_t pagetable)
{
    80000986:	7179                	addi	sp,sp,-48
    80000988:	f406                	sd	ra,40(sp)
    8000098a:	f022                	sd	s0,32(sp)
    8000098c:	ec26                	sd	s1,24(sp)
    8000098e:	e84a                	sd	s2,16(sp)
    80000990:	e44e                	sd	s3,8(sp)
    80000992:	e052                	sd	s4,0(sp)
    80000994:	1800                	addi	s0,sp,48
    80000996:	8a2a                	mv	s4,a0
    // there are 2^9 = 512 PTEs in a page table.
    for (int i = 0; i < 512; i++)
    80000998:	84aa                	mv	s1,a0
    8000099a:	6905                	lui	s2,0x1
    8000099c:	992a                	add	s2,s2,a0
    {
        pte_t pte = pagetable[i];
        if ((pte & PTE_V) && (pte & (PTE_R | PTE_W | PTE_X)) == 0)
    8000099e:	4985                	li	s3,1
    800009a0:	a821                	j	800009b8 <freewalk+0x32>
        {
            // this PTE points to a lower-level page table.
            uint64 child = PTE2PA(pte);
    800009a2:	8129                	srli	a0,a0,0xa
            freewalk((pagetable_t)child);
    800009a4:	0532                	slli	a0,a0,0xc
    800009a6:	00000097          	auipc	ra,0x0
    800009aa:	fe0080e7          	jalr	-32(ra) # 80000986 <freewalk>
            pagetable[i] = 0;
    800009ae:	0004b023          	sd	zero,0(s1)
    for (int i = 0; i < 512; i++)
    800009b2:	04a1                	addi	s1,s1,8
    800009b4:	03248163          	beq	s1,s2,800009d6 <freewalk+0x50>
        pte_t pte = pagetable[i];
    800009b8:	6088                	ld	a0,0(s1)
        if ((pte & PTE_V) && (pte & (PTE_R | PTE_W | PTE_X)) == 0)
    800009ba:	00f57793          	andi	a5,a0,15
    800009be:	ff3782e3          	beq	a5,s3,800009a2 <freewalk+0x1c>
        }
        else if (pte & PTE_V)
    800009c2:	8905                	andi	a0,a0,1
    800009c4:	d57d                	beqz	a0,800009b2 <freewalk+0x2c>
        {
            panic("freewalk: leaf");
    800009c6:	00007517          	auipc	a0,0x7
    800009ca:	74a50513          	addi	a0,a0,1866 # 80008110 <etext+0x110>
    800009ce:	00005097          	auipc	ra,0x5
    800009d2:	664080e7          	jalr	1636(ra) # 80006032 <panic>
        }
    }
    kfree((void *)pagetable);
    800009d6:	8552                	mv	a0,s4
    800009d8:	fffff097          	auipc	ra,0xfffff
    800009dc:	644080e7          	jalr	1604(ra) # 8000001c <kfree>
}
    800009e0:	70a2                	ld	ra,40(sp)
    800009e2:	7402                	ld	s0,32(sp)
    800009e4:	64e2                	ld	s1,24(sp)
    800009e6:	6942                	ld	s2,16(sp)
    800009e8:	69a2                	ld	s3,8(sp)
    800009ea:	6a02                	ld	s4,0(sp)
    800009ec:	6145                	addi	sp,sp,48
    800009ee:	8082                	ret

00000000800009f0 <uvmfree>:

// Free user memory pages,
// then free page-table pages.
void uvmfree(pagetable_t pagetable, uint64 sz)
{
    800009f0:	1101                	addi	sp,sp,-32
    800009f2:	ec06                	sd	ra,24(sp)
    800009f4:	e822                	sd	s0,16(sp)
    800009f6:	e426                	sd	s1,8(sp)
    800009f8:	1000                	addi	s0,sp,32
    800009fa:	84aa                	mv	s1,a0
    if (sz > 0)
    800009fc:	e999                	bnez	a1,80000a12 <uvmfree+0x22>
        uvmunmap(pagetable, 0, PGROUNDUP(sz) / PGSIZE, 1);
    freewalk(pagetable);
    800009fe:	8526                	mv	a0,s1
    80000a00:	00000097          	auipc	ra,0x0
    80000a04:	f86080e7          	jalr	-122(ra) # 80000986 <freewalk>
}
    80000a08:	60e2                	ld	ra,24(sp)
    80000a0a:	6442                	ld	s0,16(sp)
    80000a0c:	64a2                	ld	s1,8(sp)
    80000a0e:	6105                	addi	sp,sp,32
    80000a10:	8082                	ret
        uvmunmap(pagetable, 0, PGROUNDUP(sz) / PGSIZE, 1);
    80000a12:	6605                	lui	a2,0x1
    80000a14:	167d                	addi	a2,a2,-1
    80000a16:	962e                	add	a2,a2,a1
    80000a18:	4685                	li	a3,1
    80000a1a:	8231                	srli	a2,a2,0xc
    80000a1c:	4581                	li	a1,0
    80000a1e:	00000097          	auipc	ra,0x0
    80000a22:	d18080e7          	jalr	-744(ra) # 80000736 <uvmunmap>
    80000a26:	bfe1                	j	800009fe <uvmfree+0xe>

0000000080000a28 <uvmcopy>:
    pte_t *pte;
    uint64 pa, i;
    uint flags;
    char *mem;

    for (i = 0; i < sz; i += PGSIZE)
    80000a28:	c269                	beqz	a2,80000aea <uvmcopy+0xc2>
{
    80000a2a:	715d                	addi	sp,sp,-80
    80000a2c:	e486                	sd	ra,72(sp)
    80000a2e:	e0a2                	sd	s0,64(sp)
    80000a30:	fc26                	sd	s1,56(sp)
    80000a32:	f84a                	sd	s2,48(sp)
    80000a34:	f44e                	sd	s3,40(sp)
    80000a36:	f052                	sd	s4,32(sp)
    80000a38:	ec56                	sd	s5,24(sp)
    80000a3a:	e85a                	sd	s6,16(sp)
    80000a3c:	e45e                	sd	s7,8(sp)
    80000a3e:	0880                	addi	s0,sp,80
    80000a40:	8aaa                	mv	s5,a0
    80000a42:	8b2e                	mv	s6,a1
    80000a44:	8a32                	mv	s4,a2
    for (i = 0; i < sz; i += PGSIZE)
    80000a46:	4481                	li	s1,0
    80000a48:	a829                	j	80000a62 <uvmcopy+0x3a>
    {
        if ((pte = walk(old, i, 0)) == 0)
            panic("uvmcopy: pte should exist");
    80000a4a:	00007517          	auipc	a0,0x7
    80000a4e:	6d650513          	addi	a0,a0,1750 # 80008120 <etext+0x120>
    80000a52:	00005097          	auipc	ra,0x5
    80000a56:	5e0080e7          	jalr	1504(ra) # 80006032 <panic>
    for (i = 0; i < sz; i += PGSIZE)
    80000a5a:	6785                	lui	a5,0x1
    80000a5c:	94be                	add	s1,s1,a5
    80000a5e:	0944f463          	bgeu	s1,s4,80000ae6 <uvmcopy+0xbe>
        if ((pte = walk(old, i, 0)) == 0)
    80000a62:	4601                	li	a2,0
    80000a64:	85a6                	mv	a1,s1
    80000a66:	8556                	mv	a0,s5
    80000a68:	00000097          	auipc	ra,0x0
    80000a6c:	9fc080e7          	jalr	-1540(ra) # 80000464 <walk>
    80000a70:	dd69                	beqz	a0,80000a4a <uvmcopy+0x22>
        if ((*pte & PTE_V) == 0)
    80000a72:	6118                	ld	a4,0(a0)
    80000a74:	00177793          	andi	a5,a4,1
    80000a78:	d3ed                	beqz	a5,80000a5a <uvmcopy+0x32>
            continue;
        // panic("uvmcopy: page not present");
        pa = PTE2PA(*pte);
    80000a7a:	00a75593          	srli	a1,a4,0xa
    80000a7e:	00c59b93          	slli	s7,a1,0xc
        flags = PTE_FLAGS(*pte);
    80000a82:	3ff77913          	andi	s2,a4,1023
        if ((mem = kalloc()) == 0)
    80000a86:	fffff097          	auipc	ra,0xfffff
    80000a8a:	692080e7          	jalr	1682(ra) # 80000118 <kalloc>
    80000a8e:	89aa                	mv	s3,a0
    80000a90:	c515                	beqz	a0,80000abc <uvmcopy+0x94>
            goto err;
        memmove(mem, (char *)pa, PGSIZE);
    80000a92:	6605                	lui	a2,0x1
    80000a94:	85de                	mv	a1,s7
    80000a96:	fffff097          	auipc	ra,0xfffff
    80000a9a:	742080e7          	jalr	1858(ra) # 800001d8 <memmove>
        if (mappages(new, i, PGSIZE, (uint64)mem, flags) != 0)
    80000a9e:	874a                	mv	a4,s2
    80000aa0:	86ce                	mv	a3,s3
    80000aa2:	6605                	lui	a2,0x1
    80000aa4:	85a6                	mv	a1,s1
    80000aa6:	855a                	mv	a0,s6
    80000aa8:	00000097          	auipc	ra,0x0
    80000aac:	aa4080e7          	jalr	-1372(ra) # 8000054c <mappages>
    80000ab0:	d54d                	beqz	a0,80000a5a <uvmcopy+0x32>
        {
            kfree(mem);
    80000ab2:	854e                	mv	a0,s3
    80000ab4:	fffff097          	auipc	ra,0xfffff
    80000ab8:	568080e7          	jalr	1384(ra) # 8000001c <kfree>
        }
    }
    return 0;

err:
    uvmunmap(new, 0, i / PGSIZE, 1);
    80000abc:	4685                	li	a3,1
    80000abe:	00c4d613          	srli	a2,s1,0xc
    80000ac2:	4581                	li	a1,0
    80000ac4:	855a                	mv	a0,s6
    80000ac6:	00000097          	auipc	ra,0x0
    80000aca:	c70080e7          	jalr	-912(ra) # 80000736 <uvmunmap>
    return -1;
    80000ace:	557d                	li	a0,-1
}
    80000ad0:	60a6                	ld	ra,72(sp)
    80000ad2:	6406                	ld	s0,64(sp)
    80000ad4:	74e2                	ld	s1,56(sp)
    80000ad6:	7942                	ld	s2,48(sp)
    80000ad8:	79a2                	ld	s3,40(sp)
    80000ada:	7a02                	ld	s4,32(sp)
    80000adc:	6ae2                	ld	s5,24(sp)
    80000ade:	6b42                	ld	s6,16(sp)
    80000ae0:	6ba2                	ld	s7,8(sp)
    80000ae2:	6161                	addi	sp,sp,80
    80000ae4:	8082                	ret
    return 0;
    80000ae6:	4501                	li	a0,0
    80000ae8:	b7e5                	j	80000ad0 <uvmcopy+0xa8>
    80000aea:	4501                	li	a0,0
}
    80000aec:	8082                	ret

0000000080000aee <uvmclear>:

// mark a PTE invalid for user access.
// used by exec for the user stack guard page.
void uvmclear(pagetable_t pagetable, uint64 va)
{
    80000aee:	1141                	addi	sp,sp,-16
    80000af0:	e406                	sd	ra,8(sp)
    80000af2:	e022                	sd	s0,0(sp)
    80000af4:	0800                	addi	s0,sp,16
    pte_t *pte;

    pte = walk(pagetable, va, 0);
    80000af6:	4601                	li	a2,0
    80000af8:	00000097          	auipc	ra,0x0
    80000afc:	96c080e7          	jalr	-1684(ra) # 80000464 <walk>
    if (pte == 0)
    80000b00:	c901                	beqz	a0,80000b10 <uvmclear+0x22>
        panic("uvmclear");
    *pte &= ~PTE_U;
    80000b02:	611c                	ld	a5,0(a0)
    80000b04:	9bbd                	andi	a5,a5,-17
    80000b06:	e11c                	sd	a5,0(a0)
}
    80000b08:	60a2                	ld	ra,8(sp)
    80000b0a:	6402                	ld	s0,0(sp)
    80000b0c:	0141                	addi	sp,sp,16
    80000b0e:	8082                	ret
        panic("uvmclear");
    80000b10:	00007517          	auipc	a0,0x7
    80000b14:	63050513          	addi	a0,a0,1584 # 80008140 <etext+0x140>
    80000b18:	00005097          	auipc	ra,0x5
    80000b1c:	51a080e7          	jalr	1306(ra) # 80006032 <panic>

0000000080000b20 <copyout>:
// Return 0 on success, -1 on error.
int copyout(pagetable_t pagetable, uint64 dstva, char *src, uint64 len)
{
    uint64 n, va0, pa0;

    while (len > 0)
    80000b20:	c6bd                	beqz	a3,80000b8e <copyout+0x6e>
{
    80000b22:	715d                	addi	sp,sp,-80
    80000b24:	e486                	sd	ra,72(sp)
    80000b26:	e0a2                	sd	s0,64(sp)
    80000b28:	fc26                	sd	s1,56(sp)
    80000b2a:	f84a                	sd	s2,48(sp)
    80000b2c:	f44e                	sd	s3,40(sp)
    80000b2e:	f052                	sd	s4,32(sp)
    80000b30:	ec56                	sd	s5,24(sp)
    80000b32:	e85a                	sd	s6,16(sp)
    80000b34:	e45e                	sd	s7,8(sp)
    80000b36:	e062                	sd	s8,0(sp)
    80000b38:	0880                	addi	s0,sp,80
    80000b3a:	8b2a                	mv	s6,a0
    80000b3c:	8c2e                	mv	s8,a1
    80000b3e:	8a32                	mv	s4,a2
    80000b40:	89b6                	mv	s3,a3
    {
        va0 = PGROUNDDOWN(dstva);
    80000b42:	7bfd                	lui	s7,0xfffff
        pa0 = walkaddr(pagetable, va0);
        if (pa0 == 0)
            return -1;
        n = PGSIZE - (dstva - va0);
    80000b44:	6a85                	lui	s5,0x1
    80000b46:	a015                	j	80000b6a <copyout+0x4a>
        if (n > len)
            n = len;
        memmove((void *)(pa0 + (dstva - va0)), src, n);
    80000b48:	9562                	add	a0,a0,s8
    80000b4a:	0004861b          	sext.w	a2,s1
    80000b4e:	85d2                	mv	a1,s4
    80000b50:	41250533          	sub	a0,a0,s2
    80000b54:	fffff097          	auipc	ra,0xfffff
    80000b58:	684080e7          	jalr	1668(ra) # 800001d8 <memmove>

        len -= n;
    80000b5c:	409989b3          	sub	s3,s3,s1
        src += n;
    80000b60:	9a26                	add	s4,s4,s1
        dstva = va0 + PGSIZE;
    80000b62:	01590c33          	add	s8,s2,s5
    while (len > 0)
    80000b66:	02098263          	beqz	s3,80000b8a <copyout+0x6a>
        va0 = PGROUNDDOWN(dstva);
    80000b6a:	017c7933          	and	s2,s8,s7
        pa0 = walkaddr(pagetable, va0);
    80000b6e:	85ca                	mv	a1,s2
    80000b70:	855a                	mv	a0,s6
    80000b72:	00000097          	auipc	ra,0x0
    80000b76:	998080e7          	jalr	-1640(ra) # 8000050a <walkaddr>
        if (pa0 == 0)
    80000b7a:	cd01                	beqz	a0,80000b92 <copyout+0x72>
        n = PGSIZE - (dstva - va0);
    80000b7c:	418904b3          	sub	s1,s2,s8
    80000b80:	94d6                	add	s1,s1,s5
        if (n > len)
    80000b82:	fc99f3e3          	bgeu	s3,s1,80000b48 <copyout+0x28>
    80000b86:	84ce                	mv	s1,s3
    80000b88:	b7c1                	j	80000b48 <copyout+0x28>
    }
    return 0;
    80000b8a:	4501                	li	a0,0
    80000b8c:	a021                	j	80000b94 <copyout+0x74>
    80000b8e:	4501                	li	a0,0
}
    80000b90:	8082                	ret
            return -1;
    80000b92:	557d                	li	a0,-1
}
    80000b94:	60a6                	ld	ra,72(sp)
    80000b96:	6406                	ld	s0,64(sp)
    80000b98:	74e2                	ld	s1,56(sp)
    80000b9a:	7942                	ld	s2,48(sp)
    80000b9c:	79a2                	ld	s3,40(sp)
    80000b9e:	7a02                	ld	s4,32(sp)
    80000ba0:	6ae2                	ld	s5,24(sp)
    80000ba2:	6b42                	ld	s6,16(sp)
    80000ba4:	6ba2                	ld	s7,8(sp)
    80000ba6:	6c02                	ld	s8,0(sp)
    80000ba8:	6161                	addi	sp,sp,80
    80000baa:	8082                	ret

0000000080000bac <copyin>:
// Return 0 on success, -1 on error.
int copyin(pagetable_t pagetable, char *dst, uint64 srcva, uint64 len)
{
    uint64 n, va0, pa0;

    while (len > 0)
    80000bac:	c6bd                	beqz	a3,80000c1a <copyin+0x6e>
{
    80000bae:	715d                	addi	sp,sp,-80
    80000bb0:	e486                	sd	ra,72(sp)
    80000bb2:	e0a2                	sd	s0,64(sp)
    80000bb4:	fc26                	sd	s1,56(sp)
    80000bb6:	f84a                	sd	s2,48(sp)
    80000bb8:	f44e                	sd	s3,40(sp)
    80000bba:	f052                	sd	s4,32(sp)
    80000bbc:	ec56                	sd	s5,24(sp)
    80000bbe:	e85a                	sd	s6,16(sp)
    80000bc0:	e45e                	sd	s7,8(sp)
    80000bc2:	e062                	sd	s8,0(sp)
    80000bc4:	0880                	addi	s0,sp,80
    80000bc6:	8b2a                	mv	s6,a0
    80000bc8:	8a2e                	mv	s4,a1
    80000bca:	8c32                	mv	s8,a2
    80000bcc:	89b6                	mv	s3,a3
    {
        va0 = PGROUNDDOWN(srcva);
    80000bce:	7bfd                	lui	s7,0xfffff
        pa0 = walkaddr(pagetable, va0);
        if (pa0 == 0)
            return -1;
        n = PGSIZE - (srcva - va0);
    80000bd0:	6a85                	lui	s5,0x1
    80000bd2:	a015                	j	80000bf6 <copyin+0x4a>
        if (n > len)
            n = len;
        memmove(dst, (void *)(pa0 + (srcva - va0)), n);
    80000bd4:	9562                	add	a0,a0,s8
    80000bd6:	0004861b          	sext.w	a2,s1
    80000bda:	412505b3          	sub	a1,a0,s2
    80000bde:	8552                	mv	a0,s4
    80000be0:	fffff097          	auipc	ra,0xfffff
    80000be4:	5f8080e7          	jalr	1528(ra) # 800001d8 <memmove>

        len -= n;
    80000be8:	409989b3          	sub	s3,s3,s1
        dst += n;
    80000bec:	9a26                	add	s4,s4,s1
        srcva = va0 + PGSIZE;
    80000bee:	01590c33          	add	s8,s2,s5
    while (len > 0)
    80000bf2:	02098263          	beqz	s3,80000c16 <copyin+0x6a>
        va0 = PGROUNDDOWN(srcva);
    80000bf6:	017c7933          	and	s2,s8,s7
        pa0 = walkaddr(pagetable, va0);
    80000bfa:	85ca                	mv	a1,s2
    80000bfc:	855a                	mv	a0,s6
    80000bfe:	00000097          	auipc	ra,0x0
    80000c02:	90c080e7          	jalr	-1780(ra) # 8000050a <walkaddr>
        if (pa0 == 0)
    80000c06:	cd01                	beqz	a0,80000c1e <copyin+0x72>
        n = PGSIZE - (srcva - va0);
    80000c08:	418904b3          	sub	s1,s2,s8
    80000c0c:	94d6                	add	s1,s1,s5
        if (n > len)
    80000c0e:	fc99f3e3          	bgeu	s3,s1,80000bd4 <copyin+0x28>
    80000c12:	84ce                	mv	s1,s3
    80000c14:	b7c1                	j	80000bd4 <copyin+0x28>
    }
    return 0;
    80000c16:	4501                	li	a0,0
    80000c18:	a021                	j	80000c20 <copyin+0x74>
    80000c1a:	4501                	li	a0,0
}
    80000c1c:	8082                	ret
            return -1;
    80000c1e:	557d                	li	a0,-1
}
    80000c20:	60a6                	ld	ra,72(sp)
    80000c22:	6406                	ld	s0,64(sp)
    80000c24:	74e2                	ld	s1,56(sp)
    80000c26:	7942                	ld	s2,48(sp)
    80000c28:	79a2                	ld	s3,40(sp)
    80000c2a:	7a02                	ld	s4,32(sp)
    80000c2c:	6ae2                	ld	s5,24(sp)
    80000c2e:	6b42                	ld	s6,16(sp)
    80000c30:	6ba2                	ld	s7,8(sp)
    80000c32:	6c02                	ld	s8,0(sp)
    80000c34:	6161                	addi	sp,sp,80
    80000c36:	8082                	ret

0000000080000c38 <copyinstr>:
int copyinstr(pagetable_t pagetable, char *dst, uint64 srcva, uint64 max)
{
    uint64 n, va0, pa0;
    int got_null = 0;

    while (got_null == 0 && max > 0)
    80000c38:	c6c5                	beqz	a3,80000ce0 <copyinstr+0xa8>
{
    80000c3a:	715d                	addi	sp,sp,-80
    80000c3c:	e486                	sd	ra,72(sp)
    80000c3e:	e0a2                	sd	s0,64(sp)
    80000c40:	fc26                	sd	s1,56(sp)
    80000c42:	f84a                	sd	s2,48(sp)
    80000c44:	f44e                	sd	s3,40(sp)
    80000c46:	f052                	sd	s4,32(sp)
    80000c48:	ec56                	sd	s5,24(sp)
    80000c4a:	e85a                	sd	s6,16(sp)
    80000c4c:	e45e                	sd	s7,8(sp)
    80000c4e:	0880                	addi	s0,sp,80
    80000c50:	8a2a                	mv	s4,a0
    80000c52:	8b2e                	mv	s6,a1
    80000c54:	8bb2                	mv	s7,a2
    80000c56:	84b6                	mv	s1,a3
    {
        va0 = PGROUNDDOWN(srcva);
    80000c58:	7afd                	lui	s5,0xfffff
        pa0 = walkaddr(pagetable, va0);
        if (pa0 == 0)
            return -1;
        n = PGSIZE - (srcva - va0);
    80000c5a:	6985                	lui	s3,0x1
    80000c5c:	a035                	j	80000c88 <copyinstr+0x50>
        char *p = (char *)(pa0 + (srcva - va0));
        while (n > 0)
        {
            if (*p == '\0')
            {
                *dst = '\0';
    80000c5e:	00078023          	sb	zero,0(a5) # 1000 <_entry-0x7ffff000>
    80000c62:	4785                	li	a5,1
            dst++;
        }

        srcva = va0 + PGSIZE;
    }
    if (got_null)
    80000c64:	0017b793          	seqz	a5,a5
    80000c68:	40f00533          	neg	a0,a5
    }
    else
    {
        return -1;
    }
}
    80000c6c:	60a6                	ld	ra,72(sp)
    80000c6e:	6406                	ld	s0,64(sp)
    80000c70:	74e2                	ld	s1,56(sp)
    80000c72:	7942                	ld	s2,48(sp)
    80000c74:	79a2                	ld	s3,40(sp)
    80000c76:	7a02                	ld	s4,32(sp)
    80000c78:	6ae2                	ld	s5,24(sp)
    80000c7a:	6b42                	ld	s6,16(sp)
    80000c7c:	6ba2                	ld	s7,8(sp)
    80000c7e:	6161                	addi	sp,sp,80
    80000c80:	8082                	ret
        srcva = va0 + PGSIZE;
    80000c82:	01390bb3          	add	s7,s2,s3
    while (got_null == 0 && max > 0)
    80000c86:	c8a9                	beqz	s1,80000cd8 <copyinstr+0xa0>
        va0 = PGROUNDDOWN(srcva);
    80000c88:	015bf933          	and	s2,s7,s5
        pa0 = walkaddr(pagetable, va0);
    80000c8c:	85ca                	mv	a1,s2
    80000c8e:	8552                	mv	a0,s4
    80000c90:	00000097          	auipc	ra,0x0
    80000c94:	87a080e7          	jalr	-1926(ra) # 8000050a <walkaddr>
        if (pa0 == 0)
    80000c98:	c131                	beqz	a0,80000cdc <copyinstr+0xa4>
        n = PGSIZE - (srcva - va0);
    80000c9a:	41790833          	sub	a6,s2,s7
    80000c9e:	984e                	add	a6,a6,s3
        if (n > max)
    80000ca0:	0104f363          	bgeu	s1,a6,80000ca6 <copyinstr+0x6e>
    80000ca4:	8826                	mv	a6,s1
        char *p = (char *)(pa0 + (srcva - va0));
    80000ca6:	955e                	add	a0,a0,s7
    80000ca8:	41250533          	sub	a0,a0,s2
        while (n > 0)
    80000cac:	fc080be3          	beqz	a6,80000c82 <copyinstr+0x4a>
    80000cb0:	985a                	add	a6,a6,s6
    80000cb2:	87da                	mv	a5,s6
            if (*p == '\0')
    80000cb4:	41650633          	sub	a2,a0,s6
    80000cb8:	14fd                	addi	s1,s1,-1
    80000cba:	9b26                	add	s6,s6,s1
    80000cbc:	00f60733          	add	a4,a2,a5
    80000cc0:	00074703          	lbu	a4,0(a4)
    80000cc4:	df49                	beqz	a4,80000c5e <copyinstr+0x26>
                *dst = *p;
    80000cc6:	00e78023          	sb	a4,0(a5)
            --max;
    80000cca:	40fb04b3          	sub	s1,s6,a5
            dst++;
    80000cce:	0785                	addi	a5,a5,1
        while (n > 0)
    80000cd0:	ff0796e3          	bne	a5,a6,80000cbc <copyinstr+0x84>
            dst++;
    80000cd4:	8b42                	mv	s6,a6
    80000cd6:	b775                	j	80000c82 <copyinstr+0x4a>
    80000cd8:	4781                	li	a5,0
    80000cda:	b769                	j	80000c64 <copyinstr+0x2c>
            return -1;
    80000cdc:	557d                	li	a0,-1
    80000cde:	b779                	j	80000c6c <copyinstr+0x34>
    int got_null = 0;
    80000ce0:	4781                	li	a5,0
    if (got_null)
    80000ce2:	0017b793          	seqz	a5,a5
    80000ce6:	40f00533          	neg	a0,a5
}
    80000cea:	8082                	ret

0000000080000cec <proc_mapstacks>:

// Allocate a page for each process's kernel stack.
// Map it high in memory, followed by an invalid
// guard page.
void proc_mapstacks(pagetable_t kpgtbl)
{
    80000cec:	7139                	addi	sp,sp,-64
    80000cee:	fc06                	sd	ra,56(sp)
    80000cf0:	f822                	sd	s0,48(sp)
    80000cf2:	f426                	sd	s1,40(sp)
    80000cf4:	f04a                	sd	s2,32(sp)
    80000cf6:	ec4e                	sd	s3,24(sp)
    80000cf8:	e852                	sd	s4,16(sp)
    80000cfa:	e456                	sd	s5,8(sp)
    80000cfc:	e05a                	sd	s6,0(sp)
    80000cfe:	0080                	addi	s0,sp,64
    80000d00:	89aa                	mv	s3,a0
    struct proc *p;

    for (p = proc; p < &proc[NPROC]; p++)
    80000d02:	00008497          	auipc	s1,0x8
    80000d06:	24e48493          	addi	s1,s1,590 # 80008f50 <proc>
    {
        char *pa = kalloc();
        if (pa == 0)
            panic("kalloc");
        uint64 va = KSTACK((int)(p - proc));
    80000d0a:	8b26                	mv	s6,s1
    80000d0c:	00007a97          	auipc	s5,0x7
    80000d10:	2f4a8a93          	addi	s5,s5,756 # 80008000 <etext>
    80000d14:	04000937          	lui	s2,0x4000
    80000d18:	197d                	addi	s2,s2,-1
    80000d1a:	0932                	slli	s2,s2,0xc
    for (p = proc; p < &proc[NPROC]; p++)
    80000d1c:	00020a17          	auipc	s4,0x20
    80000d20:	c34a0a13          	addi	s4,s4,-972 # 80020950 <tickslock>
        char *pa = kalloc();
    80000d24:	fffff097          	auipc	ra,0xfffff
    80000d28:	3f4080e7          	jalr	1012(ra) # 80000118 <kalloc>
    80000d2c:	862a                	mv	a2,a0
        if (pa == 0)
    80000d2e:	c131                	beqz	a0,80000d72 <proc_mapstacks+0x86>
        uint64 va = KSTACK((int)(p - proc));
    80000d30:	416485b3          	sub	a1,s1,s6
    80000d34:	858d                	srai	a1,a1,0x3
    80000d36:	000ab783          	ld	a5,0(s5)
    80000d3a:	02f585b3          	mul	a1,a1,a5
    80000d3e:	2585                	addiw	a1,a1,1
    80000d40:	00d5959b          	slliw	a1,a1,0xd
        kvmmap(kpgtbl, va, (uint64)pa, PGSIZE, PTE_R | PTE_W);
    80000d44:	4719                	li	a4,6
    80000d46:	6685                	lui	a3,0x1
    80000d48:	40b905b3          	sub	a1,s2,a1
    80000d4c:	854e                	mv	a0,s3
    80000d4e:	00000097          	auipc	ra,0x0
    80000d52:	8c2080e7          	jalr	-1854(ra) # 80000610 <kvmmap>
    for (p = proc; p < &proc[NPROC]; p++)
    80000d56:	5e848493          	addi	s1,s1,1512
    80000d5a:	fd4495e3          	bne	s1,s4,80000d24 <proc_mapstacks+0x38>
    }
}
    80000d5e:	70e2                	ld	ra,56(sp)
    80000d60:	7442                	ld	s0,48(sp)
    80000d62:	74a2                	ld	s1,40(sp)
    80000d64:	7902                	ld	s2,32(sp)
    80000d66:	69e2                	ld	s3,24(sp)
    80000d68:	6a42                	ld	s4,16(sp)
    80000d6a:	6aa2                	ld	s5,8(sp)
    80000d6c:	6b02                	ld	s6,0(sp)
    80000d6e:	6121                	addi	sp,sp,64
    80000d70:	8082                	ret
            panic("kalloc");
    80000d72:	00007517          	auipc	a0,0x7
    80000d76:	3de50513          	addi	a0,a0,990 # 80008150 <etext+0x150>
    80000d7a:	00005097          	auipc	ra,0x5
    80000d7e:	2b8080e7          	jalr	696(ra) # 80006032 <panic>

0000000080000d82 <procinit>:

// initialize the proc table.
void procinit(void)
{
    80000d82:	7139                	addi	sp,sp,-64
    80000d84:	fc06                	sd	ra,56(sp)
    80000d86:	f822                	sd	s0,48(sp)
    80000d88:	f426                	sd	s1,40(sp)
    80000d8a:	f04a                	sd	s2,32(sp)
    80000d8c:	ec4e                	sd	s3,24(sp)
    80000d8e:	e852                	sd	s4,16(sp)
    80000d90:	e456                	sd	s5,8(sp)
    80000d92:	e05a                	sd	s6,0(sp)
    80000d94:	0080                	addi	s0,sp,64
    struct proc *p;

    initlock(&pid_lock, "nextpid");
    80000d96:	00007597          	auipc	a1,0x7
    80000d9a:	3c258593          	addi	a1,a1,962 # 80008158 <etext+0x158>
    80000d9e:	00008517          	auipc	a0,0x8
    80000da2:	d8250513          	addi	a0,a0,-638 # 80008b20 <pid_lock>
    80000da6:	00005097          	auipc	ra,0x5
    80000daa:	746080e7          	jalr	1862(ra) # 800064ec <initlock>
    initlock(&wait_lock, "wait_lock");
    80000dae:	00007597          	auipc	a1,0x7
    80000db2:	3b258593          	addi	a1,a1,946 # 80008160 <etext+0x160>
    80000db6:	00008517          	auipc	a0,0x8
    80000dba:	d8250513          	addi	a0,a0,-638 # 80008b38 <wait_lock>
    80000dbe:	00005097          	auipc	ra,0x5
    80000dc2:	72e080e7          	jalr	1838(ra) # 800064ec <initlock>
    for (p = proc; p < &proc[NPROC]; p++)
    80000dc6:	00008497          	auipc	s1,0x8
    80000dca:	18a48493          	addi	s1,s1,394 # 80008f50 <proc>
    {
        initlock(&p->lock, "proc");
    80000dce:	00007b17          	auipc	s6,0x7
    80000dd2:	3a2b0b13          	addi	s6,s6,930 # 80008170 <etext+0x170>
        p->state = UNUSED;
        p->kstack = KSTACK((int)(p - proc));
    80000dd6:	8aa6                	mv	s5,s1
    80000dd8:	00007a17          	auipc	s4,0x7
    80000ddc:	228a0a13          	addi	s4,s4,552 # 80008000 <etext>
    80000de0:	04000937          	lui	s2,0x4000
    80000de4:	197d                	addi	s2,s2,-1
    80000de6:	0932                	slli	s2,s2,0xc
    for (p = proc; p < &proc[NPROC]; p++)
    80000de8:	00020997          	auipc	s3,0x20
    80000dec:	b6898993          	addi	s3,s3,-1176 # 80020950 <tickslock>
        initlock(&p->lock, "proc");
    80000df0:	85da                	mv	a1,s6
    80000df2:	8526                	mv	a0,s1
    80000df4:	00005097          	auipc	ra,0x5
    80000df8:	6f8080e7          	jalr	1784(ra) # 800064ec <initlock>
        p->state = UNUSED;
    80000dfc:	0004ac23          	sw	zero,24(s1)
        p->kstack = KSTACK((int)(p - proc));
    80000e00:	415487b3          	sub	a5,s1,s5
    80000e04:	878d                	srai	a5,a5,0x3
    80000e06:	000a3703          	ld	a4,0(s4)
    80000e0a:	02e787b3          	mul	a5,a5,a4
    80000e0e:	2785                	addiw	a5,a5,1
    80000e10:	00d7979b          	slliw	a5,a5,0xd
    80000e14:	40f907b3          	sub	a5,s2,a5
    80000e18:	e0bc                	sd	a5,64(s1)
    for (p = proc; p < &proc[NPROC]; p++)
    80000e1a:	5e848493          	addi	s1,s1,1512
    80000e1e:	fd3499e3          	bne	s1,s3,80000df0 <procinit+0x6e>
    }
}
    80000e22:	70e2                	ld	ra,56(sp)
    80000e24:	7442                	ld	s0,48(sp)
    80000e26:	74a2                	ld	s1,40(sp)
    80000e28:	7902                	ld	s2,32(sp)
    80000e2a:	69e2                	ld	s3,24(sp)
    80000e2c:	6a42                	ld	s4,16(sp)
    80000e2e:	6aa2                	ld	s5,8(sp)
    80000e30:	6b02                	ld	s6,0(sp)
    80000e32:	6121                	addi	sp,sp,64
    80000e34:	8082                	ret

0000000080000e36 <cpuid>:

// Must be called with interrupts disabled,
// to prevent race with process being moved
// to a different CPU.
int cpuid()
{
    80000e36:	1141                	addi	sp,sp,-16
    80000e38:	e422                	sd	s0,8(sp)
    80000e3a:	0800                	addi	s0,sp,16
  asm volatile("mv %0, tp" : "=r" (x) );
    80000e3c:	8512                	mv	a0,tp
    int id = r_tp();
    return id;
}
    80000e3e:	2501                	sext.w	a0,a0
    80000e40:	6422                	ld	s0,8(sp)
    80000e42:	0141                	addi	sp,sp,16
    80000e44:	8082                	ret

0000000080000e46 <mycpu>:

// Return this CPU's cpu struct.
// Interrupts must be disabled.
struct cpu *
mycpu(void)
{
    80000e46:	1141                	addi	sp,sp,-16
    80000e48:	e422                	sd	s0,8(sp)
    80000e4a:	0800                	addi	s0,sp,16
    80000e4c:	8792                	mv	a5,tp
    int id = cpuid();
    struct cpu *c = &cpus[id];
    80000e4e:	2781                	sext.w	a5,a5
    80000e50:	079e                	slli	a5,a5,0x7
    return c;
}
    80000e52:	00008517          	auipc	a0,0x8
    80000e56:	cfe50513          	addi	a0,a0,-770 # 80008b50 <cpus>
    80000e5a:	953e                	add	a0,a0,a5
    80000e5c:	6422                	ld	s0,8(sp)
    80000e5e:	0141                	addi	sp,sp,16
    80000e60:	8082                	ret

0000000080000e62 <myproc>:

// Return the current struct proc *, or zero if none.
struct proc *
myproc(void)
{
    80000e62:	1101                	addi	sp,sp,-32
    80000e64:	ec06                	sd	ra,24(sp)
    80000e66:	e822                	sd	s0,16(sp)
    80000e68:	e426                	sd	s1,8(sp)
    80000e6a:	1000                	addi	s0,sp,32
    push_off();
    80000e6c:	00005097          	auipc	ra,0x5
    80000e70:	6c4080e7          	jalr	1732(ra) # 80006530 <push_off>
    80000e74:	8792                	mv	a5,tp
    struct cpu *c = mycpu();
    struct proc *p = c->proc;
    80000e76:	2781                	sext.w	a5,a5
    80000e78:	079e                	slli	a5,a5,0x7
    80000e7a:	00008717          	auipc	a4,0x8
    80000e7e:	ca670713          	addi	a4,a4,-858 # 80008b20 <pid_lock>
    80000e82:	97ba                	add	a5,a5,a4
    80000e84:	7b84                	ld	s1,48(a5)
    pop_off();
    80000e86:	00005097          	auipc	ra,0x5
    80000e8a:	74a080e7          	jalr	1866(ra) # 800065d0 <pop_off>
    return p;
}
    80000e8e:	8526                	mv	a0,s1
    80000e90:	60e2                	ld	ra,24(sp)
    80000e92:	6442                	ld	s0,16(sp)
    80000e94:	64a2                	ld	s1,8(sp)
    80000e96:	6105                	addi	sp,sp,32
    80000e98:	8082                	ret

0000000080000e9a <forkret>:
}

// A fork child's very first scheduling by scheduler()
// will swtch to forkret.
void forkret(void)
{
    80000e9a:	1141                	addi	sp,sp,-16
    80000e9c:	e406                	sd	ra,8(sp)
    80000e9e:	e022                	sd	s0,0(sp)
    80000ea0:	0800                	addi	s0,sp,16
    static int first = 1;

    // Still holding p->lock from scheduler.
    release(&myproc()->lock);
    80000ea2:	00000097          	auipc	ra,0x0
    80000ea6:	fc0080e7          	jalr	-64(ra) # 80000e62 <myproc>
    80000eaa:	00005097          	auipc	ra,0x5
    80000eae:	786080e7          	jalr	1926(ra) # 80006630 <release>

    if (first)
    80000eb2:	00008797          	auipc	a5,0x8
    80000eb6:	bae7a783          	lw	a5,-1106(a5) # 80008a60 <first.1694>
    80000eba:	eb89                	bnez	a5,80000ecc <forkret+0x32>
        // be run from main().
        first = 0;
        fsinit(ROOTDEV);
    }

    usertrapret();
    80000ebc:	00001097          	auipc	ra,0x1
    80000ec0:	c56080e7          	jalr	-938(ra) # 80001b12 <usertrapret>
}
    80000ec4:	60a2                	ld	ra,8(sp)
    80000ec6:	6402                	ld	s0,0(sp)
    80000ec8:	0141                	addi	sp,sp,16
    80000eca:	8082                	ret
        first = 0;
    80000ecc:	00008797          	auipc	a5,0x8
    80000ed0:	b807aa23          	sw	zero,-1132(a5) # 80008a60 <first.1694>
        fsinit(ROOTDEV);
    80000ed4:	4505                	li	a0,1
    80000ed6:	00002097          	auipc	ra,0x2
    80000eda:	a84080e7          	jalr	-1404(ra) # 8000295a <fsinit>
    80000ede:	bff9                	j	80000ebc <forkret+0x22>

0000000080000ee0 <allocpid>:
{
    80000ee0:	1101                	addi	sp,sp,-32
    80000ee2:	ec06                	sd	ra,24(sp)
    80000ee4:	e822                	sd	s0,16(sp)
    80000ee6:	e426                	sd	s1,8(sp)
    80000ee8:	e04a                	sd	s2,0(sp)
    80000eea:	1000                	addi	s0,sp,32
    acquire(&pid_lock);
    80000eec:	00008917          	auipc	s2,0x8
    80000ef0:	c3490913          	addi	s2,s2,-972 # 80008b20 <pid_lock>
    80000ef4:	854a                	mv	a0,s2
    80000ef6:	00005097          	auipc	ra,0x5
    80000efa:	686080e7          	jalr	1670(ra) # 8000657c <acquire>
    pid = nextpid;
    80000efe:	00008797          	auipc	a5,0x8
    80000f02:	b6678793          	addi	a5,a5,-1178 # 80008a64 <nextpid>
    80000f06:	4384                	lw	s1,0(a5)
    nextpid = nextpid + 1;
    80000f08:	0014871b          	addiw	a4,s1,1
    80000f0c:	c398                	sw	a4,0(a5)
    release(&pid_lock);
    80000f0e:	854a                	mv	a0,s2
    80000f10:	00005097          	auipc	ra,0x5
    80000f14:	720080e7          	jalr	1824(ra) # 80006630 <release>
}
    80000f18:	8526                	mv	a0,s1
    80000f1a:	60e2                	ld	ra,24(sp)
    80000f1c:	6442                	ld	s0,16(sp)
    80000f1e:	64a2                	ld	s1,8(sp)
    80000f20:	6902                	ld	s2,0(sp)
    80000f22:	6105                	addi	sp,sp,32
    80000f24:	8082                	ret

0000000080000f26 <proc_pagetable>:
{
    80000f26:	1101                	addi	sp,sp,-32
    80000f28:	ec06                	sd	ra,24(sp)
    80000f2a:	e822                	sd	s0,16(sp)
    80000f2c:	e426                	sd	s1,8(sp)
    80000f2e:	e04a                	sd	s2,0(sp)
    80000f30:	1000                	addi	s0,sp,32
    80000f32:	892a                	mv	s2,a0
    pagetable = uvmcreate();
    80000f34:	00000097          	auipc	ra,0x0
    80000f38:	8b8080e7          	jalr	-1864(ra) # 800007ec <uvmcreate>
    80000f3c:	84aa                	mv	s1,a0
    if (pagetable == 0)
    80000f3e:	c121                	beqz	a0,80000f7e <proc_pagetable+0x58>
    if (mappages(pagetable, TRAMPOLINE, PGSIZE,
    80000f40:	4729                	li	a4,10
    80000f42:	00006697          	auipc	a3,0x6
    80000f46:	0be68693          	addi	a3,a3,190 # 80007000 <_trampoline>
    80000f4a:	6605                	lui	a2,0x1
    80000f4c:	040005b7          	lui	a1,0x4000
    80000f50:	15fd                	addi	a1,a1,-1
    80000f52:	05b2                	slli	a1,a1,0xc
    80000f54:	fffff097          	auipc	ra,0xfffff
    80000f58:	5f8080e7          	jalr	1528(ra) # 8000054c <mappages>
    80000f5c:	02054863          	bltz	a0,80000f8c <proc_pagetable+0x66>
    if (mappages(pagetable, TRAPFRAME, PGSIZE,
    80000f60:	4719                	li	a4,6
    80000f62:	05893683          	ld	a3,88(s2)
    80000f66:	6605                	lui	a2,0x1
    80000f68:	020005b7          	lui	a1,0x2000
    80000f6c:	15fd                	addi	a1,a1,-1
    80000f6e:	05b6                	slli	a1,a1,0xd
    80000f70:	8526                	mv	a0,s1
    80000f72:	fffff097          	auipc	ra,0xfffff
    80000f76:	5da080e7          	jalr	1498(ra) # 8000054c <mappages>
    80000f7a:	02054163          	bltz	a0,80000f9c <proc_pagetable+0x76>
}
    80000f7e:	8526                	mv	a0,s1
    80000f80:	60e2                	ld	ra,24(sp)
    80000f82:	6442                	ld	s0,16(sp)
    80000f84:	64a2                	ld	s1,8(sp)
    80000f86:	6902                	ld	s2,0(sp)
    80000f88:	6105                	addi	sp,sp,32
    80000f8a:	8082                	ret
        uvmfree(pagetable, 0);
    80000f8c:	4581                	li	a1,0
    80000f8e:	8526                	mv	a0,s1
    80000f90:	00000097          	auipc	ra,0x0
    80000f94:	a60080e7          	jalr	-1440(ra) # 800009f0 <uvmfree>
        return 0;
    80000f98:	4481                	li	s1,0
    80000f9a:	b7d5                	j	80000f7e <proc_pagetable+0x58>
        uvmunmap(pagetable, TRAMPOLINE, 1, 0);
    80000f9c:	4681                	li	a3,0
    80000f9e:	4605                	li	a2,1
    80000fa0:	040005b7          	lui	a1,0x4000
    80000fa4:	15fd                	addi	a1,a1,-1
    80000fa6:	05b2                	slli	a1,a1,0xc
    80000fa8:	8526                	mv	a0,s1
    80000faa:	fffff097          	auipc	ra,0xfffff
    80000fae:	78c080e7          	jalr	1932(ra) # 80000736 <uvmunmap>
        uvmfree(pagetable, 0);
    80000fb2:	4581                	li	a1,0
    80000fb4:	8526                	mv	a0,s1
    80000fb6:	00000097          	auipc	ra,0x0
    80000fba:	a3a080e7          	jalr	-1478(ra) # 800009f0 <uvmfree>
        return 0;
    80000fbe:	4481                	li	s1,0
    80000fc0:	bf7d                	j	80000f7e <proc_pagetable+0x58>

0000000080000fc2 <proc_freepagetable>:
{
    80000fc2:	1101                	addi	sp,sp,-32
    80000fc4:	ec06                	sd	ra,24(sp)
    80000fc6:	e822                	sd	s0,16(sp)
    80000fc8:	e426                	sd	s1,8(sp)
    80000fca:	e04a                	sd	s2,0(sp)
    80000fcc:	1000                	addi	s0,sp,32
    80000fce:	84aa                	mv	s1,a0
    80000fd0:	892e                	mv	s2,a1
    uvmunmap(pagetable, TRAMPOLINE, 1, 0);
    80000fd2:	4681                	li	a3,0
    80000fd4:	4605                	li	a2,1
    80000fd6:	040005b7          	lui	a1,0x4000
    80000fda:	15fd                	addi	a1,a1,-1
    80000fdc:	05b2                	slli	a1,a1,0xc
    80000fde:	fffff097          	auipc	ra,0xfffff
    80000fe2:	758080e7          	jalr	1880(ra) # 80000736 <uvmunmap>
    uvmunmap(pagetable, TRAPFRAME, 1, 0);
    80000fe6:	4681                	li	a3,0
    80000fe8:	4605                	li	a2,1
    80000fea:	020005b7          	lui	a1,0x2000
    80000fee:	15fd                	addi	a1,a1,-1
    80000ff0:	05b6                	slli	a1,a1,0xd
    80000ff2:	8526                	mv	a0,s1
    80000ff4:	fffff097          	auipc	ra,0xfffff
    80000ff8:	742080e7          	jalr	1858(ra) # 80000736 <uvmunmap>
    uvmfree(pagetable, sz);
    80000ffc:	85ca                	mv	a1,s2
    80000ffe:	8526                	mv	a0,s1
    80001000:	00000097          	auipc	ra,0x0
    80001004:	9f0080e7          	jalr	-1552(ra) # 800009f0 <uvmfree>
}
    80001008:	60e2                	ld	ra,24(sp)
    8000100a:	6442                	ld	s0,16(sp)
    8000100c:	64a2                	ld	s1,8(sp)
    8000100e:	6902                	ld	s2,0(sp)
    80001010:	6105                	addi	sp,sp,32
    80001012:	8082                	ret

0000000080001014 <freeproc>:
{
    80001014:	1101                	addi	sp,sp,-32
    80001016:	ec06                	sd	ra,24(sp)
    80001018:	e822                	sd	s0,16(sp)
    8000101a:	e426                	sd	s1,8(sp)
    8000101c:	1000                	addi	s0,sp,32
    8000101e:	84aa                	mv	s1,a0
    if (p->trapframe)
    80001020:	6d28                	ld	a0,88(a0)
    80001022:	c509                	beqz	a0,8000102c <freeproc+0x18>
        kfree((void *)p->trapframe);
    80001024:	fffff097          	auipc	ra,0xfffff
    80001028:	ff8080e7          	jalr	-8(ra) # 8000001c <kfree>
    p->trapframe = 0;
    8000102c:	0404bc23          	sd	zero,88(s1)
    if (p->pagetable)
    80001030:	68a8                	ld	a0,80(s1)
    80001032:	c511                	beqz	a0,8000103e <freeproc+0x2a>
        proc_freepagetable(p->pagetable, p->sz);
    80001034:	64ac                	ld	a1,72(s1)
    80001036:	00000097          	auipc	ra,0x0
    8000103a:	f8c080e7          	jalr	-116(ra) # 80000fc2 <proc_freepagetable>
    p->pagetable = 0;
    8000103e:	0404b823          	sd	zero,80(s1)
    p->sz = 0;
    80001042:	0404b423          	sd	zero,72(s1)
    p->pid = 0;
    80001046:	0204a823          	sw	zero,48(s1)
    p->parent = 0;
    8000104a:	0204bc23          	sd	zero,56(s1)
    p->name[0] = 0;
    8000104e:	14048c23          	sb	zero,344(s1)
    p->chan = 0;
    80001052:	0204b023          	sd	zero,32(s1)
    p->killed = 0;
    80001056:	0204a423          	sw	zero,40(s1)
    p->xstate = 0;
    8000105a:	0204a623          	sw	zero,44(s1)
    p->state = UNUSED;
    8000105e:	0004ac23          	sw	zero,24(s1)
}
    80001062:	60e2                	ld	ra,24(sp)
    80001064:	6442                	ld	s0,16(sp)
    80001066:	64a2                	ld	s1,8(sp)
    80001068:	6105                	addi	sp,sp,32
    8000106a:	8082                	ret

000000008000106c <allocproc>:
{
    8000106c:	1101                	addi	sp,sp,-32
    8000106e:	ec06                	sd	ra,24(sp)
    80001070:	e822                	sd	s0,16(sp)
    80001072:	e426                	sd	s1,8(sp)
    80001074:	e04a                	sd	s2,0(sp)
    80001076:	1000                	addi	s0,sp,32
    for (p = proc; p < &proc[NPROC]; p++)
    80001078:	00008497          	auipc	s1,0x8
    8000107c:	ed848493          	addi	s1,s1,-296 # 80008f50 <proc>
    80001080:	00020917          	auipc	s2,0x20
    80001084:	8d090913          	addi	s2,s2,-1840 # 80020950 <tickslock>
        acquire(&p->lock);
    80001088:	8526                	mv	a0,s1
    8000108a:	00005097          	auipc	ra,0x5
    8000108e:	4f2080e7          	jalr	1266(ra) # 8000657c <acquire>
        if (p->state == UNUSED)
    80001092:	4c9c                	lw	a5,24(s1)
    80001094:	cf81                	beqz	a5,800010ac <allocproc+0x40>
            release(&p->lock);
    80001096:	8526                	mv	a0,s1
    80001098:	00005097          	auipc	ra,0x5
    8000109c:	598080e7          	jalr	1432(ra) # 80006630 <release>
    for (p = proc; p < &proc[NPROC]; p++)
    800010a0:	5e848493          	addi	s1,s1,1512
    800010a4:	ff2492e3          	bne	s1,s2,80001088 <allocproc+0x1c>
    return 0;
    800010a8:	4481                	li	s1,0
    800010aa:	a889                	j	800010fc <allocproc+0x90>
    p->pid = allocpid();
    800010ac:	00000097          	auipc	ra,0x0
    800010b0:	e34080e7          	jalr	-460(ra) # 80000ee0 <allocpid>
    800010b4:	d888                	sw	a0,48(s1)
    p->state = USED;
    800010b6:	4785                	li	a5,1
    800010b8:	cc9c                	sw	a5,24(s1)
    if ((p->trapframe = (struct trapframe *)kalloc()) == 0)
    800010ba:	fffff097          	auipc	ra,0xfffff
    800010be:	05e080e7          	jalr	94(ra) # 80000118 <kalloc>
    800010c2:	892a                	mv	s2,a0
    800010c4:	eca8                	sd	a0,88(s1)
    800010c6:	c131                	beqz	a0,8000110a <allocproc+0x9e>
    p->pagetable = proc_pagetable(p);
    800010c8:	8526                	mv	a0,s1
    800010ca:	00000097          	auipc	ra,0x0
    800010ce:	e5c080e7          	jalr	-420(ra) # 80000f26 <proc_pagetable>
    800010d2:	892a                	mv	s2,a0
    800010d4:	e8a8                	sd	a0,80(s1)
    if (p->pagetable == 0)
    800010d6:	c531                	beqz	a0,80001122 <allocproc+0xb6>
    memset(&p->context, 0, sizeof(p->context));
    800010d8:	07000613          	li	a2,112
    800010dc:	4581                	li	a1,0
    800010de:	06048513          	addi	a0,s1,96
    800010e2:	fffff097          	auipc	ra,0xfffff
    800010e6:	096080e7          	jalr	150(ra) # 80000178 <memset>
    p->context.ra = (uint64)forkret;
    800010ea:	00000797          	auipc	a5,0x0
    800010ee:	db078793          	addi	a5,a5,-592 # 80000e9a <forkret>
    800010f2:	f0bc                	sd	a5,96(s1)
    p->context.sp = p->kstack + PGSIZE;
    800010f4:	60bc                	ld	a5,64(s1)
    800010f6:	6705                	lui	a4,0x1
    800010f8:	97ba                	add	a5,a5,a4
    800010fa:	f4bc                	sd	a5,104(s1)
}
    800010fc:	8526                	mv	a0,s1
    800010fe:	60e2                	ld	ra,24(sp)
    80001100:	6442                	ld	s0,16(sp)
    80001102:	64a2                	ld	s1,8(sp)
    80001104:	6902                	ld	s2,0(sp)
    80001106:	6105                	addi	sp,sp,32
    80001108:	8082                	ret
        freeproc(p);
    8000110a:	8526                	mv	a0,s1
    8000110c:	00000097          	auipc	ra,0x0
    80001110:	f08080e7          	jalr	-248(ra) # 80001014 <freeproc>
        release(&p->lock);
    80001114:	8526                	mv	a0,s1
    80001116:	00005097          	auipc	ra,0x5
    8000111a:	51a080e7          	jalr	1306(ra) # 80006630 <release>
        return 0;
    8000111e:	84ca                	mv	s1,s2
    80001120:	bff1                	j	800010fc <allocproc+0x90>
        freeproc(p);
    80001122:	8526                	mv	a0,s1
    80001124:	00000097          	auipc	ra,0x0
    80001128:	ef0080e7          	jalr	-272(ra) # 80001014 <freeproc>
        release(&p->lock);
    8000112c:	8526                	mv	a0,s1
    8000112e:	00005097          	auipc	ra,0x5
    80001132:	502080e7          	jalr	1282(ra) # 80006630 <release>
        return 0;
    80001136:	84ca                	mv	s1,s2
    80001138:	b7d1                	j	800010fc <allocproc+0x90>

000000008000113a <userinit>:
{
    8000113a:	1101                	addi	sp,sp,-32
    8000113c:	ec06                	sd	ra,24(sp)
    8000113e:	e822                	sd	s0,16(sp)
    80001140:	e426                	sd	s1,8(sp)
    80001142:	1000                	addi	s0,sp,32
    p = allocproc();
    80001144:	00000097          	auipc	ra,0x0
    80001148:	f28080e7          	jalr	-216(ra) # 8000106c <allocproc>
    8000114c:	84aa                	mv	s1,a0
    initproc = p;
    8000114e:	00008797          	auipc	a5,0x8
    80001152:	98a7b923          	sd	a0,-1646(a5) # 80008ae0 <initproc>
    uvmfirst(p->pagetable, initcode, sizeof(initcode));
    80001156:	03400613          	li	a2,52
    8000115a:	00008597          	auipc	a1,0x8
    8000115e:	91658593          	addi	a1,a1,-1770 # 80008a70 <initcode>
    80001162:	6928                	ld	a0,80(a0)
    80001164:	fffff097          	auipc	ra,0xfffff
    80001168:	6b6080e7          	jalr	1718(ra) # 8000081a <uvmfirst>
    p->sz = PGSIZE;
    8000116c:	6785                	lui	a5,0x1
    8000116e:	e4bc                	sd	a5,72(s1)
    p->trapframe->epc = 0;     // user program counter
    80001170:	6cb8                	ld	a4,88(s1)
    80001172:	00073c23          	sd	zero,24(a4) # 1018 <_entry-0x7fffefe8>
    p->trapframe->sp = PGSIZE; // user stack pointer
    80001176:	6cb8                	ld	a4,88(s1)
    80001178:	fb1c                	sd	a5,48(a4)
    safestrcpy(p->name, "initcode", sizeof(p->name));
    8000117a:	4641                	li	a2,16
    8000117c:	00007597          	auipc	a1,0x7
    80001180:	ffc58593          	addi	a1,a1,-4 # 80008178 <etext+0x178>
    80001184:	15848513          	addi	a0,s1,344
    80001188:	fffff097          	auipc	ra,0xfffff
    8000118c:	142080e7          	jalr	322(ra) # 800002ca <safestrcpy>
    p->cwd = namei("/");
    80001190:	00007517          	auipc	a0,0x7
    80001194:	ff850513          	addi	a0,a0,-8 # 80008188 <etext+0x188>
    80001198:	00002097          	auipc	ra,0x2
    8000119c:	1e4080e7          	jalr	484(ra) # 8000337c <namei>
    800011a0:	14a4b823          	sd	a0,336(s1)
    p->state = RUNNABLE;
    800011a4:	478d                	li	a5,3
    800011a6:	cc9c                	sw	a5,24(s1)
    release(&p->lock);
    800011a8:	8526                	mv	a0,s1
    800011aa:	00005097          	auipc	ra,0x5
    800011ae:	486080e7          	jalr	1158(ra) # 80006630 <release>
}
    800011b2:	60e2                	ld	ra,24(sp)
    800011b4:	6442                	ld	s0,16(sp)
    800011b6:	64a2                	ld	s1,8(sp)
    800011b8:	6105                	addi	sp,sp,32
    800011ba:	8082                	ret

00000000800011bc <growproc>:
{
    800011bc:	1101                	addi	sp,sp,-32
    800011be:	ec06                	sd	ra,24(sp)
    800011c0:	e822                	sd	s0,16(sp)
    800011c2:	e426                	sd	s1,8(sp)
    800011c4:	e04a                	sd	s2,0(sp)
    800011c6:	1000                	addi	s0,sp,32
    800011c8:	892a                	mv	s2,a0
    struct proc *p = myproc();
    800011ca:	00000097          	auipc	ra,0x0
    800011ce:	c98080e7          	jalr	-872(ra) # 80000e62 <myproc>
    800011d2:	84aa                	mv	s1,a0
    sz = p->sz;
    800011d4:	652c                	ld	a1,72(a0)
    if (n > 0)
    800011d6:	01204c63          	bgtz	s2,800011ee <growproc+0x32>
    else if (n < 0)
    800011da:	02094663          	bltz	s2,80001206 <growproc+0x4a>
    p->sz = sz;
    800011de:	e4ac                	sd	a1,72(s1)
    return 0;
    800011e0:	4501                	li	a0,0
}
    800011e2:	60e2                	ld	ra,24(sp)
    800011e4:	6442                	ld	s0,16(sp)
    800011e6:	64a2                	ld	s1,8(sp)
    800011e8:	6902                	ld	s2,0(sp)
    800011ea:	6105                	addi	sp,sp,32
    800011ec:	8082                	ret
        if ((sz = uvmalloc(p->pagetable, sz, sz + n, PTE_W)) == 0)
    800011ee:	4691                	li	a3,4
    800011f0:	00b90633          	add	a2,s2,a1
    800011f4:	6928                	ld	a0,80(a0)
    800011f6:	fffff097          	auipc	ra,0xfffff
    800011fa:	6de080e7          	jalr	1758(ra) # 800008d4 <uvmalloc>
    800011fe:	85aa                	mv	a1,a0
    80001200:	fd79                	bnez	a0,800011de <growproc+0x22>
            return -1;
    80001202:	557d                	li	a0,-1
    80001204:	bff9                	j	800011e2 <growproc+0x26>
        sz = uvmdealloc(p->pagetable, sz, sz + n);
    80001206:	00b90633          	add	a2,s2,a1
    8000120a:	6928                	ld	a0,80(a0)
    8000120c:	fffff097          	auipc	ra,0xfffff
    80001210:	680080e7          	jalr	1664(ra) # 8000088c <uvmdealloc>
    80001214:	85aa                	mv	a1,a0
    80001216:	b7e1                	j	800011de <growproc+0x22>

0000000080001218 <fork>:
{
    80001218:	7179                	addi	sp,sp,-48
    8000121a:	f406                	sd	ra,40(sp)
    8000121c:	f022                	sd	s0,32(sp)
    8000121e:	ec26                	sd	s1,24(sp)
    80001220:	e84a                	sd	s2,16(sp)
    80001222:	e44e                	sd	s3,8(sp)
    80001224:	e052                	sd	s4,0(sp)
    80001226:	1800                	addi	s0,sp,48
    struct proc *p = myproc();
    80001228:	00000097          	auipc	ra,0x0
    8000122c:	c3a080e7          	jalr	-966(ra) # 80000e62 <myproc>
    80001230:	892a                	mv	s2,a0
    if ((np = allocproc()) == 0)
    80001232:	00000097          	auipc	ra,0x0
    80001236:	e3a080e7          	jalr	-454(ra) # 8000106c <allocproc>
    8000123a:	10050b63          	beqz	a0,80001350 <fork+0x138>
    8000123e:	89aa                	mv	s3,a0
    if (uvmcopy(p->pagetable, np->pagetable, p->sz) < 0)
    80001240:	04893603          	ld	a2,72(s2)
    80001244:	692c                	ld	a1,80(a0)
    80001246:	05093503          	ld	a0,80(s2)
    8000124a:	fffff097          	auipc	ra,0xfffff
    8000124e:	7de080e7          	jalr	2014(ra) # 80000a28 <uvmcopy>
    80001252:	04054663          	bltz	a0,8000129e <fork+0x86>
    np->sz = p->sz;
    80001256:	04893783          	ld	a5,72(s2)
    8000125a:	04f9b423          	sd	a5,72(s3)
    *(np->trapframe) = *(p->trapframe);
    8000125e:	05893683          	ld	a3,88(s2)
    80001262:	87b6                	mv	a5,a3
    80001264:	0589b703          	ld	a4,88(s3)
    80001268:	12068693          	addi	a3,a3,288
    8000126c:	0007b803          	ld	a6,0(a5) # 1000 <_entry-0x7ffff000>
    80001270:	6788                	ld	a0,8(a5)
    80001272:	6b8c                	ld	a1,16(a5)
    80001274:	6f90                	ld	a2,24(a5)
    80001276:	01073023          	sd	a6,0(a4)
    8000127a:	e708                	sd	a0,8(a4)
    8000127c:	eb0c                	sd	a1,16(a4)
    8000127e:	ef10                	sd	a2,24(a4)
    80001280:	02078793          	addi	a5,a5,32
    80001284:	02070713          	addi	a4,a4,32
    80001288:	fed792e3          	bne	a5,a3,8000126c <fork+0x54>
    np->trapframe->a0 = 0;
    8000128c:	0589b783          	ld	a5,88(s3)
    80001290:	0607b823          	sd	zero,112(a5)
    80001294:	0d000493          	li	s1,208
    for (i = 0; i < NOFILE; i++)
    80001298:	15000a13          	li	s4,336
    8000129c:	a03d                	j	800012ca <fork+0xb2>
        freeproc(np);
    8000129e:	854e                	mv	a0,s3
    800012a0:	00000097          	auipc	ra,0x0
    800012a4:	d74080e7          	jalr	-652(ra) # 80001014 <freeproc>
        release(&np->lock);
    800012a8:	854e                	mv	a0,s3
    800012aa:	00005097          	auipc	ra,0x5
    800012ae:	386080e7          	jalr	902(ra) # 80006630 <release>
        return -1;
    800012b2:	5a7d                	li	s4,-1
    800012b4:	a069                	j	8000133e <fork+0x126>
            np->ofile[i] = filedup(p->ofile[i]);
    800012b6:	00002097          	auipc	ra,0x2
    800012ba:	75c080e7          	jalr	1884(ra) # 80003a12 <filedup>
    800012be:	009987b3          	add	a5,s3,s1
    800012c2:	e388                	sd	a0,0(a5)
    for (i = 0; i < NOFILE; i++)
    800012c4:	04a1                	addi	s1,s1,8
    800012c6:	01448763          	beq	s1,s4,800012d4 <fork+0xbc>
        if (p->ofile[i])
    800012ca:	009907b3          	add	a5,s2,s1
    800012ce:	6388                	ld	a0,0(a5)
    800012d0:	f17d                	bnez	a0,800012b6 <fork+0x9e>
    800012d2:	bfcd                	j	800012c4 <fork+0xac>
    np->cwd = idup(p->cwd);
    800012d4:	15093503          	ld	a0,336(s2)
    800012d8:	00002097          	auipc	ra,0x2
    800012dc:	8c0080e7          	jalr	-1856(ra) # 80002b98 <idup>
    800012e0:	14a9b823          	sd	a0,336(s3)
    safestrcpy(np->name, p->name, sizeof(p->name));
    800012e4:	4641                	li	a2,16
    800012e6:	15890593          	addi	a1,s2,344
    800012ea:	15898513          	addi	a0,s3,344
    800012ee:	fffff097          	auipc	ra,0xfffff
    800012f2:	fdc080e7          	jalr	-36(ra) # 800002ca <safestrcpy>
    pid = np->pid;
    800012f6:	0309aa03          	lw	s4,48(s3)
    release(&np->lock);
    800012fa:	854e                	mv	a0,s3
    800012fc:	00005097          	auipc	ra,0x5
    80001300:	334080e7          	jalr	820(ra) # 80006630 <release>
    acquire(&wait_lock);
    80001304:	00008497          	auipc	s1,0x8
    80001308:	83448493          	addi	s1,s1,-1996 # 80008b38 <wait_lock>
    8000130c:	8526                	mv	a0,s1
    8000130e:	00005097          	auipc	ra,0x5
    80001312:	26e080e7          	jalr	622(ra) # 8000657c <acquire>
    np->parent = p;
    80001316:	0329bc23          	sd	s2,56(s3)
    release(&wait_lock);
    8000131a:	8526                	mv	a0,s1
    8000131c:	00005097          	auipc	ra,0x5
    80001320:	314080e7          	jalr	788(ra) # 80006630 <release>
    acquire(&np->lock);
    80001324:	854e                	mv	a0,s3
    80001326:	00005097          	auipc	ra,0x5
    8000132a:	256080e7          	jalr	598(ra) # 8000657c <acquire>
    np->state = RUNNABLE;
    8000132e:	478d                	li	a5,3
    80001330:	00f9ac23          	sw	a5,24(s3)
    release(&np->lock);
    80001334:	854e                	mv	a0,s3
    80001336:	00005097          	auipc	ra,0x5
    8000133a:	2fa080e7          	jalr	762(ra) # 80006630 <release>
}
    8000133e:	8552                	mv	a0,s4
    80001340:	70a2                	ld	ra,40(sp)
    80001342:	7402                	ld	s0,32(sp)
    80001344:	64e2                	ld	s1,24(sp)
    80001346:	6942                	ld	s2,16(sp)
    80001348:	69a2                	ld	s3,8(sp)
    8000134a:	6a02                	ld	s4,0(sp)
    8000134c:	6145                	addi	sp,sp,48
    8000134e:	8082                	ret
        return -1;
    80001350:	5a7d                	li	s4,-1
    80001352:	b7f5                	j	8000133e <fork+0x126>

0000000080001354 <scheduler>:
{
    80001354:	7139                	addi	sp,sp,-64
    80001356:	fc06                	sd	ra,56(sp)
    80001358:	f822                	sd	s0,48(sp)
    8000135a:	f426                	sd	s1,40(sp)
    8000135c:	f04a                	sd	s2,32(sp)
    8000135e:	ec4e                	sd	s3,24(sp)
    80001360:	e852                	sd	s4,16(sp)
    80001362:	e456                	sd	s5,8(sp)
    80001364:	e05a                	sd	s6,0(sp)
    80001366:	0080                	addi	s0,sp,64
    80001368:	8792                	mv	a5,tp
    int id = r_tp();
    8000136a:	2781                	sext.w	a5,a5
    c->proc = 0;
    8000136c:	00779a93          	slli	s5,a5,0x7
    80001370:	00007717          	auipc	a4,0x7
    80001374:	7b070713          	addi	a4,a4,1968 # 80008b20 <pid_lock>
    80001378:	9756                	add	a4,a4,s5
    8000137a:	02073823          	sd	zero,48(a4)
                swtch(&c->context, &p->context);
    8000137e:	00007717          	auipc	a4,0x7
    80001382:	7da70713          	addi	a4,a4,2010 # 80008b58 <cpus+0x8>
    80001386:	9aba                	add	s5,s5,a4
            if (p->state == RUNNABLE)
    80001388:	498d                	li	s3,3
                p->state = RUNNING;
    8000138a:	4b11                	li	s6,4
                c->proc = p;
    8000138c:	079e                	slli	a5,a5,0x7
    8000138e:	00007a17          	auipc	s4,0x7
    80001392:	792a0a13          	addi	s4,s4,1938 # 80008b20 <pid_lock>
    80001396:	9a3e                	add	s4,s4,a5
        for (p = proc; p < &proc[NPROC]; p++)
    80001398:	0001f917          	auipc	s2,0x1f
    8000139c:	5b890913          	addi	s2,s2,1464 # 80020950 <tickslock>
  asm volatile("csrr %0, sstatus" : "=r" (x) );
    800013a0:	100027f3          	csrr	a5,sstatus
  w_sstatus(r_sstatus() | SSTATUS_SIE);
    800013a4:	0027e793          	ori	a5,a5,2
  asm volatile("csrw sstatus, %0" : : "r" (x));
    800013a8:	10079073          	csrw	sstatus,a5
    800013ac:	00008497          	auipc	s1,0x8
    800013b0:	ba448493          	addi	s1,s1,-1116 # 80008f50 <proc>
    800013b4:	a03d                	j	800013e2 <scheduler+0x8e>
                p->state = RUNNING;
    800013b6:	0164ac23          	sw	s6,24(s1)
                c->proc = p;
    800013ba:	029a3823          	sd	s1,48(s4)
                swtch(&c->context, &p->context);
    800013be:	06048593          	addi	a1,s1,96
    800013c2:	8556                	mv	a0,s5
    800013c4:	00000097          	auipc	ra,0x0
    800013c8:	6a4080e7          	jalr	1700(ra) # 80001a68 <swtch>
                c->proc = 0;
    800013cc:	020a3823          	sd	zero,48(s4)
            release(&p->lock);
    800013d0:	8526                	mv	a0,s1
    800013d2:	00005097          	auipc	ra,0x5
    800013d6:	25e080e7          	jalr	606(ra) # 80006630 <release>
        for (p = proc; p < &proc[NPROC]; p++)
    800013da:	5e848493          	addi	s1,s1,1512
    800013de:	fd2481e3          	beq	s1,s2,800013a0 <scheduler+0x4c>
            acquire(&p->lock);
    800013e2:	8526                	mv	a0,s1
    800013e4:	00005097          	auipc	ra,0x5
    800013e8:	198080e7          	jalr	408(ra) # 8000657c <acquire>
            if (p->state == RUNNABLE)
    800013ec:	4c9c                	lw	a5,24(s1)
    800013ee:	ff3791e3          	bne	a5,s3,800013d0 <scheduler+0x7c>
    800013f2:	b7d1                	j	800013b6 <scheduler+0x62>

00000000800013f4 <sched>:
{
    800013f4:	7179                	addi	sp,sp,-48
    800013f6:	f406                	sd	ra,40(sp)
    800013f8:	f022                	sd	s0,32(sp)
    800013fa:	ec26                	sd	s1,24(sp)
    800013fc:	e84a                	sd	s2,16(sp)
    800013fe:	e44e                	sd	s3,8(sp)
    80001400:	1800                	addi	s0,sp,48
    struct proc *p = myproc();
    80001402:	00000097          	auipc	ra,0x0
    80001406:	a60080e7          	jalr	-1440(ra) # 80000e62 <myproc>
    8000140a:	84aa                	mv	s1,a0
    if (!holding(&p->lock))
    8000140c:	00005097          	auipc	ra,0x5
    80001410:	0f6080e7          	jalr	246(ra) # 80006502 <holding>
    80001414:	c93d                	beqz	a0,8000148a <sched+0x96>
  asm volatile("mv %0, tp" : "=r" (x) );
    80001416:	8792                	mv	a5,tp
    if (mycpu()->noff != 1)
    80001418:	2781                	sext.w	a5,a5
    8000141a:	079e                	slli	a5,a5,0x7
    8000141c:	00007717          	auipc	a4,0x7
    80001420:	70470713          	addi	a4,a4,1796 # 80008b20 <pid_lock>
    80001424:	97ba                	add	a5,a5,a4
    80001426:	0a87a703          	lw	a4,168(a5)
    8000142a:	4785                	li	a5,1
    8000142c:	06f71763          	bne	a4,a5,8000149a <sched+0xa6>
    if (p->state == RUNNING)
    80001430:	4c98                	lw	a4,24(s1)
    80001432:	4791                	li	a5,4
    80001434:	06f70b63          	beq	a4,a5,800014aa <sched+0xb6>
  asm volatile("csrr %0, sstatus" : "=r" (x) );
    80001438:	100027f3          	csrr	a5,sstatus
  return (x & SSTATUS_SIE) != 0;
    8000143c:	8b89                	andi	a5,a5,2
    if (intr_get())
    8000143e:	efb5                	bnez	a5,800014ba <sched+0xc6>
  asm volatile("mv %0, tp" : "=r" (x) );
    80001440:	8792                	mv	a5,tp
    intena = mycpu()->intena;
    80001442:	00007917          	auipc	s2,0x7
    80001446:	6de90913          	addi	s2,s2,1758 # 80008b20 <pid_lock>
    8000144a:	2781                	sext.w	a5,a5
    8000144c:	079e                	slli	a5,a5,0x7
    8000144e:	97ca                	add	a5,a5,s2
    80001450:	0ac7a983          	lw	s3,172(a5)
    80001454:	8792                	mv	a5,tp
    swtch(&p->context, &mycpu()->context);
    80001456:	2781                	sext.w	a5,a5
    80001458:	079e                	slli	a5,a5,0x7
    8000145a:	00007597          	auipc	a1,0x7
    8000145e:	6fe58593          	addi	a1,a1,1790 # 80008b58 <cpus+0x8>
    80001462:	95be                	add	a1,a1,a5
    80001464:	06048513          	addi	a0,s1,96
    80001468:	00000097          	auipc	ra,0x0
    8000146c:	600080e7          	jalr	1536(ra) # 80001a68 <swtch>
    80001470:	8792                	mv	a5,tp
    mycpu()->intena = intena;
    80001472:	2781                	sext.w	a5,a5
    80001474:	079e                	slli	a5,a5,0x7
    80001476:	97ca                	add	a5,a5,s2
    80001478:	0b37a623          	sw	s3,172(a5)
}
    8000147c:	70a2                	ld	ra,40(sp)
    8000147e:	7402                	ld	s0,32(sp)
    80001480:	64e2                	ld	s1,24(sp)
    80001482:	6942                	ld	s2,16(sp)
    80001484:	69a2                	ld	s3,8(sp)
    80001486:	6145                	addi	sp,sp,48
    80001488:	8082                	ret
        panic("sched p->lock");
    8000148a:	00007517          	auipc	a0,0x7
    8000148e:	d0650513          	addi	a0,a0,-762 # 80008190 <etext+0x190>
    80001492:	00005097          	auipc	ra,0x5
    80001496:	ba0080e7          	jalr	-1120(ra) # 80006032 <panic>
        panic("sched locks");
    8000149a:	00007517          	auipc	a0,0x7
    8000149e:	d0650513          	addi	a0,a0,-762 # 800081a0 <etext+0x1a0>
    800014a2:	00005097          	auipc	ra,0x5
    800014a6:	b90080e7          	jalr	-1136(ra) # 80006032 <panic>
        panic("sched running");
    800014aa:	00007517          	auipc	a0,0x7
    800014ae:	d0650513          	addi	a0,a0,-762 # 800081b0 <etext+0x1b0>
    800014b2:	00005097          	auipc	ra,0x5
    800014b6:	b80080e7          	jalr	-1152(ra) # 80006032 <panic>
        panic("sched interruptible");
    800014ba:	00007517          	auipc	a0,0x7
    800014be:	d0650513          	addi	a0,a0,-762 # 800081c0 <etext+0x1c0>
    800014c2:	00005097          	auipc	ra,0x5
    800014c6:	b70080e7          	jalr	-1168(ra) # 80006032 <panic>

00000000800014ca <yield>:
{
    800014ca:	1101                	addi	sp,sp,-32
    800014cc:	ec06                	sd	ra,24(sp)
    800014ce:	e822                	sd	s0,16(sp)
    800014d0:	e426                	sd	s1,8(sp)
    800014d2:	1000                	addi	s0,sp,32
    struct proc *p = myproc();
    800014d4:	00000097          	auipc	ra,0x0
    800014d8:	98e080e7          	jalr	-1650(ra) # 80000e62 <myproc>
    800014dc:	84aa                	mv	s1,a0
    acquire(&p->lock);
    800014de:	00005097          	auipc	ra,0x5
    800014e2:	09e080e7          	jalr	158(ra) # 8000657c <acquire>
    p->state = RUNNABLE;
    800014e6:	478d                	li	a5,3
    800014e8:	cc9c                	sw	a5,24(s1)
    sched();
    800014ea:	00000097          	auipc	ra,0x0
    800014ee:	f0a080e7          	jalr	-246(ra) # 800013f4 <sched>
    release(&p->lock);
    800014f2:	8526                	mv	a0,s1
    800014f4:	00005097          	auipc	ra,0x5
    800014f8:	13c080e7          	jalr	316(ra) # 80006630 <release>
}
    800014fc:	60e2                	ld	ra,24(sp)
    800014fe:	6442                	ld	s0,16(sp)
    80001500:	64a2                	ld	s1,8(sp)
    80001502:	6105                	addi	sp,sp,32
    80001504:	8082                	ret

0000000080001506 <sleep>:

// Atomically release lock and sleep on chan.
// Reacquires lock when awakened.
void sleep(void *chan, struct spinlock *lk)
{
    80001506:	7179                	addi	sp,sp,-48
    80001508:	f406                	sd	ra,40(sp)
    8000150a:	f022                	sd	s0,32(sp)
    8000150c:	ec26                	sd	s1,24(sp)
    8000150e:	e84a                	sd	s2,16(sp)
    80001510:	e44e                	sd	s3,8(sp)
    80001512:	1800                	addi	s0,sp,48
    80001514:	89aa                	mv	s3,a0
    80001516:	892e                	mv	s2,a1
    struct proc *p = myproc();
    80001518:	00000097          	auipc	ra,0x0
    8000151c:	94a080e7          	jalr	-1718(ra) # 80000e62 <myproc>
    80001520:	84aa                	mv	s1,a0
    // Once we hold p->lock, we can be
    // guaranteed that we won't miss any wakeup
    // (wakeup locks p->lock),
    // so it's okay to release lk.

    acquire(&p->lock); // DOC: sleeplock1
    80001522:	00005097          	auipc	ra,0x5
    80001526:	05a080e7          	jalr	90(ra) # 8000657c <acquire>
    release(lk);
    8000152a:	854a                	mv	a0,s2
    8000152c:	00005097          	auipc	ra,0x5
    80001530:	104080e7          	jalr	260(ra) # 80006630 <release>

    // Go to sleep.
    p->chan = chan;
    80001534:	0334b023          	sd	s3,32(s1)
    p->state = SLEEPING;
    80001538:	4789                	li	a5,2
    8000153a:	cc9c                	sw	a5,24(s1)

    sched();
    8000153c:	00000097          	auipc	ra,0x0
    80001540:	eb8080e7          	jalr	-328(ra) # 800013f4 <sched>

    // Tidy up.
    p->chan = 0;
    80001544:	0204b023          	sd	zero,32(s1)

    // Reacquire original lock.
    release(&p->lock);
    80001548:	8526                	mv	a0,s1
    8000154a:	00005097          	auipc	ra,0x5
    8000154e:	0e6080e7          	jalr	230(ra) # 80006630 <release>
    acquire(lk);
    80001552:	854a                	mv	a0,s2
    80001554:	00005097          	auipc	ra,0x5
    80001558:	028080e7          	jalr	40(ra) # 8000657c <acquire>
}
    8000155c:	70a2                	ld	ra,40(sp)
    8000155e:	7402                	ld	s0,32(sp)
    80001560:	64e2                	ld	s1,24(sp)
    80001562:	6942                	ld	s2,16(sp)
    80001564:	69a2                	ld	s3,8(sp)
    80001566:	6145                	addi	sp,sp,48
    80001568:	8082                	ret

000000008000156a <wakeup>:

// Wake up all processes sleeping on chan.
// Must be called without any p->lock.
void wakeup(void *chan)
{
    8000156a:	7139                	addi	sp,sp,-64
    8000156c:	fc06                	sd	ra,56(sp)
    8000156e:	f822                	sd	s0,48(sp)
    80001570:	f426                	sd	s1,40(sp)
    80001572:	f04a                	sd	s2,32(sp)
    80001574:	ec4e                	sd	s3,24(sp)
    80001576:	e852                	sd	s4,16(sp)
    80001578:	e456                	sd	s5,8(sp)
    8000157a:	0080                	addi	s0,sp,64
    8000157c:	8a2a                	mv	s4,a0
    struct proc *p;

    for (p = proc; p < &proc[NPROC]; p++)
    8000157e:	00008497          	auipc	s1,0x8
    80001582:	9d248493          	addi	s1,s1,-1582 # 80008f50 <proc>
    {
        if (p != myproc())
        {
            acquire(&p->lock);
            if (p->state == SLEEPING && p->chan == chan)
    80001586:	4989                	li	s3,2
            {
                p->state = RUNNABLE;
    80001588:	4a8d                	li	s5,3
    for (p = proc; p < &proc[NPROC]; p++)
    8000158a:	0001f917          	auipc	s2,0x1f
    8000158e:	3c690913          	addi	s2,s2,966 # 80020950 <tickslock>
    80001592:	a821                	j	800015aa <wakeup+0x40>
                p->state = RUNNABLE;
    80001594:	0154ac23          	sw	s5,24(s1)
            }
            release(&p->lock);
    80001598:	8526                	mv	a0,s1
    8000159a:	00005097          	auipc	ra,0x5
    8000159e:	096080e7          	jalr	150(ra) # 80006630 <release>
    for (p = proc; p < &proc[NPROC]; p++)
    800015a2:	5e848493          	addi	s1,s1,1512
    800015a6:	03248463          	beq	s1,s2,800015ce <wakeup+0x64>
        if (p != myproc())
    800015aa:	00000097          	auipc	ra,0x0
    800015ae:	8b8080e7          	jalr	-1864(ra) # 80000e62 <myproc>
    800015b2:	fea488e3          	beq	s1,a0,800015a2 <wakeup+0x38>
            acquire(&p->lock);
    800015b6:	8526                	mv	a0,s1
    800015b8:	00005097          	auipc	ra,0x5
    800015bc:	fc4080e7          	jalr	-60(ra) # 8000657c <acquire>
            if (p->state == SLEEPING && p->chan == chan)
    800015c0:	4c9c                	lw	a5,24(s1)
    800015c2:	fd379be3          	bne	a5,s3,80001598 <wakeup+0x2e>
    800015c6:	709c                	ld	a5,32(s1)
    800015c8:	fd4798e3          	bne	a5,s4,80001598 <wakeup+0x2e>
    800015cc:	b7e1                	j	80001594 <wakeup+0x2a>
        }
    }
}
    800015ce:	70e2                	ld	ra,56(sp)
    800015d0:	7442                	ld	s0,48(sp)
    800015d2:	74a2                	ld	s1,40(sp)
    800015d4:	7902                	ld	s2,32(sp)
    800015d6:	69e2                	ld	s3,24(sp)
    800015d8:	6a42                	ld	s4,16(sp)
    800015da:	6aa2                	ld	s5,8(sp)
    800015dc:	6121                	addi	sp,sp,64
    800015de:	8082                	ret

00000000800015e0 <reparent>:
{
    800015e0:	7179                	addi	sp,sp,-48
    800015e2:	f406                	sd	ra,40(sp)
    800015e4:	f022                	sd	s0,32(sp)
    800015e6:	ec26                	sd	s1,24(sp)
    800015e8:	e84a                	sd	s2,16(sp)
    800015ea:	e44e                	sd	s3,8(sp)
    800015ec:	e052                	sd	s4,0(sp)
    800015ee:	1800                	addi	s0,sp,48
    800015f0:	892a                	mv	s2,a0
    for (pp = proc; pp < &proc[NPROC]; pp++)
    800015f2:	00008497          	auipc	s1,0x8
    800015f6:	95e48493          	addi	s1,s1,-1698 # 80008f50 <proc>
            pp->parent = initproc;
    800015fa:	00007a17          	auipc	s4,0x7
    800015fe:	4e6a0a13          	addi	s4,s4,1254 # 80008ae0 <initproc>
    for (pp = proc; pp < &proc[NPROC]; pp++)
    80001602:	0001f997          	auipc	s3,0x1f
    80001606:	34e98993          	addi	s3,s3,846 # 80020950 <tickslock>
    8000160a:	a029                	j	80001614 <reparent+0x34>
    8000160c:	5e848493          	addi	s1,s1,1512
    80001610:	01348d63          	beq	s1,s3,8000162a <reparent+0x4a>
        if (pp->parent == p)
    80001614:	7c9c                	ld	a5,56(s1)
    80001616:	ff279be3          	bne	a5,s2,8000160c <reparent+0x2c>
            pp->parent = initproc;
    8000161a:	000a3503          	ld	a0,0(s4)
    8000161e:	fc88                	sd	a0,56(s1)
            wakeup(initproc);
    80001620:	00000097          	auipc	ra,0x0
    80001624:	f4a080e7          	jalr	-182(ra) # 8000156a <wakeup>
    80001628:	b7d5                	j	8000160c <reparent+0x2c>
}
    8000162a:	70a2                	ld	ra,40(sp)
    8000162c:	7402                	ld	s0,32(sp)
    8000162e:	64e2                	ld	s1,24(sp)
    80001630:	6942                	ld	s2,16(sp)
    80001632:	69a2                	ld	s3,8(sp)
    80001634:	6a02                	ld	s4,0(sp)
    80001636:	6145                	addi	sp,sp,48
    80001638:	8082                	ret

000000008000163a <exit>:
{
    8000163a:	7179                	addi	sp,sp,-48
    8000163c:	f406                	sd	ra,40(sp)
    8000163e:	f022                	sd	s0,32(sp)
    80001640:	ec26                	sd	s1,24(sp)
    80001642:	e84a                	sd	s2,16(sp)
    80001644:	e44e                	sd	s3,8(sp)
    80001646:	e052                	sd	s4,0(sp)
    80001648:	1800                	addi	s0,sp,48
    8000164a:	8a2a                	mv	s4,a0
    struct proc *p = myproc();
    8000164c:	00000097          	auipc	ra,0x0
    80001650:	816080e7          	jalr	-2026(ra) # 80000e62 <myproc>
    80001654:	89aa                	mv	s3,a0
    if (p == initproc)
    80001656:	00007797          	auipc	a5,0x7
    8000165a:	48a7b783          	ld	a5,1162(a5) # 80008ae0 <initproc>
    8000165e:	0d050493          	addi	s1,a0,208
    80001662:	15050913          	addi	s2,a0,336
    80001666:	02a79363          	bne	a5,a0,8000168c <exit+0x52>
        panic("init exiting");
    8000166a:	00007517          	auipc	a0,0x7
    8000166e:	b6e50513          	addi	a0,a0,-1170 # 800081d8 <etext+0x1d8>
    80001672:	00005097          	auipc	ra,0x5
    80001676:	9c0080e7          	jalr	-1600(ra) # 80006032 <panic>
            fileclose(f);
    8000167a:	00002097          	auipc	ra,0x2
    8000167e:	3ea080e7          	jalr	1002(ra) # 80003a64 <fileclose>
            p->ofile[fd] = 0;
    80001682:	0004b023          	sd	zero,0(s1)
    for (int fd = 0; fd < NOFILE; fd++)
    80001686:	04a1                	addi	s1,s1,8
    80001688:	01248563          	beq	s1,s2,80001692 <exit+0x58>
        if (p->ofile[fd])
    8000168c:	6088                	ld	a0,0(s1)
    8000168e:	f575                	bnez	a0,8000167a <exit+0x40>
    80001690:	bfdd                	j	80001686 <exit+0x4c>
    begin_op();
    80001692:	00002097          	auipc	ra,0x2
    80001696:	f06080e7          	jalr	-250(ra) # 80003598 <begin_op>
    iput(p->cwd);
    8000169a:	1509b503          	ld	a0,336(s3)
    8000169e:	00001097          	auipc	ra,0x1
    800016a2:	6f2080e7          	jalr	1778(ra) # 80002d90 <iput>
    end_op();
    800016a6:	00002097          	auipc	ra,0x2
    800016aa:	f72080e7          	jalr	-142(ra) # 80003618 <end_op>
    p->cwd = 0;
    800016ae:	1409b823          	sd	zero,336(s3)
    acquire(&wait_lock);
    800016b2:	00007497          	auipc	s1,0x7
    800016b6:	48648493          	addi	s1,s1,1158 # 80008b38 <wait_lock>
    800016ba:	8526                	mv	a0,s1
    800016bc:	00005097          	auipc	ra,0x5
    800016c0:	ec0080e7          	jalr	-320(ra) # 8000657c <acquire>
    reparent(p);
    800016c4:	854e                	mv	a0,s3
    800016c6:	00000097          	auipc	ra,0x0
    800016ca:	f1a080e7          	jalr	-230(ra) # 800015e0 <reparent>
    wakeup(p->parent);
    800016ce:	0389b503          	ld	a0,56(s3)
    800016d2:	00000097          	auipc	ra,0x0
    800016d6:	e98080e7          	jalr	-360(ra) # 8000156a <wakeup>
    acquire(&p->lock);
    800016da:	854e                	mv	a0,s3
    800016dc:	00005097          	auipc	ra,0x5
    800016e0:	ea0080e7          	jalr	-352(ra) # 8000657c <acquire>
    p->xstate = status;
    800016e4:	0349a623          	sw	s4,44(s3)
    p->state = ZOMBIE;
    800016e8:	4795                	li	a5,5
    800016ea:	00f9ac23          	sw	a5,24(s3)
    release(&wait_lock);
    800016ee:	8526                	mv	a0,s1
    800016f0:	00005097          	auipc	ra,0x5
    800016f4:	f40080e7          	jalr	-192(ra) # 80006630 <release>
    sched();
    800016f8:	00000097          	auipc	ra,0x0
    800016fc:	cfc080e7          	jalr	-772(ra) # 800013f4 <sched>
    panic("zombie exit");
    80001700:	00007517          	auipc	a0,0x7
    80001704:	ae850513          	addi	a0,a0,-1304 # 800081e8 <etext+0x1e8>
    80001708:	00005097          	auipc	ra,0x5
    8000170c:	92a080e7          	jalr	-1750(ra) # 80006032 <panic>

0000000080001710 <kill>:

// Kill the process with the given pid.
// The victim won't exit until it tries to return
// to user space (see usertrap() in trap.c).
int kill(int pid)
{
    80001710:	7179                	addi	sp,sp,-48
    80001712:	f406                	sd	ra,40(sp)
    80001714:	f022                	sd	s0,32(sp)
    80001716:	ec26                	sd	s1,24(sp)
    80001718:	e84a                	sd	s2,16(sp)
    8000171a:	e44e                	sd	s3,8(sp)
    8000171c:	1800                	addi	s0,sp,48
    8000171e:	892a                	mv	s2,a0
    struct proc *p;

    for (p = proc; p < &proc[NPROC]; p++)
    80001720:	00008497          	auipc	s1,0x8
    80001724:	83048493          	addi	s1,s1,-2000 # 80008f50 <proc>
    80001728:	0001f997          	auipc	s3,0x1f
    8000172c:	22898993          	addi	s3,s3,552 # 80020950 <tickslock>
    {
        acquire(&p->lock);
    80001730:	8526                	mv	a0,s1
    80001732:	00005097          	auipc	ra,0x5
    80001736:	e4a080e7          	jalr	-438(ra) # 8000657c <acquire>
        if (p->pid == pid)
    8000173a:	589c                	lw	a5,48(s1)
    8000173c:	01278d63          	beq	a5,s2,80001756 <kill+0x46>
                p->state = RUNNABLE;
            }
            release(&p->lock);
            return 0;
        }
        release(&p->lock);
    80001740:	8526                	mv	a0,s1
    80001742:	00005097          	auipc	ra,0x5
    80001746:	eee080e7          	jalr	-274(ra) # 80006630 <release>
    for (p = proc; p < &proc[NPROC]; p++)
    8000174a:	5e848493          	addi	s1,s1,1512
    8000174e:	ff3491e3          	bne	s1,s3,80001730 <kill+0x20>
    }
    return -1;
    80001752:	557d                	li	a0,-1
    80001754:	a829                	j	8000176e <kill+0x5e>
            p->killed = 1;
    80001756:	4785                	li	a5,1
    80001758:	d49c                	sw	a5,40(s1)
            if (p->state == SLEEPING)
    8000175a:	4c98                	lw	a4,24(s1)
    8000175c:	4789                	li	a5,2
    8000175e:	00f70f63          	beq	a4,a5,8000177c <kill+0x6c>
            release(&p->lock);
    80001762:	8526                	mv	a0,s1
    80001764:	00005097          	auipc	ra,0x5
    80001768:	ecc080e7          	jalr	-308(ra) # 80006630 <release>
            return 0;
    8000176c:	4501                	li	a0,0
}
    8000176e:	70a2                	ld	ra,40(sp)
    80001770:	7402                	ld	s0,32(sp)
    80001772:	64e2                	ld	s1,24(sp)
    80001774:	6942                	ld	s2,16(sp)
    80001776:	69a2                	ld	s3,8(sp)
    80001778:	6145                	addi	sp,sp,48
    8000177a:	8082                	ret
                p->state = RUNNABLE;
    8000177c:	478d                	li	a5,3
    8000177e:	cc9c                	sw	a5,24(s1)
    80001780:	b7cd                	j	80001762 <kill+0x52>

0000000080001782 <setkilled>:

void setkilled(struct proc *p)
{
    80001782:	1101                	addi	sp,sp,-32
    80001784:	ec06                	sd	ra,24(sp)
    80001786:	e822                	sd	s0,16(sp)
    80001788:	e426                	sd	s1,8(sp)
    8000178a:	1000                	addi	s0,sp,32
    8000178c:	84aa                	mv	s1,a0
    acquire(&p->lock);
    8000178e:	00005097          	auipc	ra,0x5
    80001792:	dee080e7          	jalr	-530(ra) # 8000657c <acquire>
    p->killed = 1;
    80001796:	4785                	li	a5,1
    80001798:	d49c                	sw	a5,40(s1)
    release(&p->lock);
    8000179a:	8526                	mv	a0,s1
    8000179c:	00005097          	auipc	ra,0x5
    800017a0:	e94080e7          	jalr	-364(ra) # 80006630 <release>
}
    800017a4:	60e2                	ld	ra,24(sp)
    800017a6:	6442                	ld	s0,16(sp)
    800017a8:	64a2                	ld	s1,8(sp)
    800017aa:	6105                	addi	sp,sp,32
    800017ac:	8082                	ret

00000000800017ae <killed>:

int killed(struct proc *p)
{
    800017ae:	1101                	addi	sp,sp,-32
    800017b0:	ec06                	sd	ra,24(sp)
    800017b2:	e822                	sd	s0,16(sp)
    800017b4:	e426                	sd	s1,8(sp)
    800017b6:	e04a                	sd	s2,0(sp)
    800017b8:	1000                	addi	s0,sp,32
    800017ba:	84aa                	mv	s1,a0
    int k;

    acquire(&p->lock);
    800017bc:	00005097          	auipc	ra,0x5
    800017c0:	dc0080e7          	jalr	-576(ra) # 8000657c <acquire>
    k = p->killed;
    800017c4:	0284a903          	lw	s2,40(s1)
    release(&p->lock);
    800017c8:	8526                	mv	a0,s1
    800017ca:	00005097          	auipc	ra,0x5
    800017ce:	e66080e7          	jalr	-410(ra) # 80006630 <release>
    return k;
}
    800017d2:	854a                	mv	a0,s2
    800017d4:	60e2                	ld	ra,24(sp)
    800017d6:	6442                	ld	s0,16(sp)
    800017d8:	64a2                	ld	s1,8(sp)
    800017da:	6902                	ld	s2,0(sp)
    800017dc:	6105                	addi	sp,sp,32
    800017de:	8082                	ret

00000000800017e0 <wait>:
{
    800017e0:	715d                	addi	sp,sp,-80
    800017e2:	e486                	sd	ra,72(sp)
    800017e4:	e0a2                	sd	s0,64(sp)
    800017e6:	fc26                	sd	s1,56(sp)
    800017e8:	f84a                	sd	s2,48(sp)
    800017ea:	f44e                	sd	s3,40(sp)
    800017ec:	f052                	sd	s4,32(sp)
    800017ee:	ec56                	sd	s5,24(sp)
    800017f0:	e85a                	sd	s6,16(sp)
    800017f2:	e45e                	sd	s7,8(sp)
    800017f4:	e062                	sd	s8,0(sp)
    800017f6:	0880                	addi	s0,sp,80
    800017f8:	8b2a                	mv	s6,a0
    struct proc *p = myproc();
    800017fa:	fffff097          	auipc	ra,0xfffff
    800017fe:	668080e7          	jalr	1640(ra) # 80000e62 <myproc>
    80001802:	892a                	mv	s2,a0
    acquire(&wait_lock);
    80001804:	00007517          	auipc	a0,0x7
    80001808:	33450513          	addi	a0,a0,820 # 80008b38 <wait_lock>
    8000180c:	00005097          	auipc	ra,0x5
    80001810:	d70080e7          	jalr	-656(ra) # 8000657c <acquire>
        havekids = 0;
    80001814:	4b81                	li	s7,0
                if (pp->state == ZOMBIE)
    80001816:	4a15                	li	s4,5
        for (pp = proc; pp < &proc[NPROC]; pp++)
    80001818:	0001f997          	auipc	s3,0x1f
    8000181c:	13898993          	addi	s3,s3,312 # 80020950 <tickslock>
                havekids = 1;
    80001820:	4a85                	li	s5,1
        sleep(p, &wait_lock); // DOC: wait-sleep
    80001822:	00007c17          	auipc	s8,0x7
    80001826:	316c0c13          	addi	s8,s8,790 # 80008b38 <wait_lock>
        havekids = 0;
    8000182a:	875e                	mv	a4,s7
        for (pp = proc; pp < &proc[NPROC]; pp++)
    8000182c:	00007497          	auipc	s1,0x7
    80001830:	72448493          	addi	s1,s1,1828 # 80008f50 <proc>
    80001834:	a0bd                	j	800018a2 <wait+0xc2>
                    pid = pp->pid;
    80001836:	0304a983          	lw	s3,48(s1)
                    if (addr != 0 && copyout(p->pagetable, addr, (char *)&pp->xstate,
    8000183a:	000b0e63          	beqz	s6,80001856 <wait+0x76>
    8000183e:	4691                	li	a3,4
    80001840:	02c48613          	addi	a2,s1,44
    80001844:	85da                	mv	a1,s6
    80001846:	05093503          	ld	a0,80(s2)
    8000184a:	fffff097          	auipc	ra,0xfffff
    8000184e:	2d6080e7          	jalr	726(ra) # 80000b20 <copyout>
    80001852:	02054563          	bltz	a0,8000187c <wait+0x9c>
                    freeproc(pp);
    80001856:	8526                	mv	a0,s1
    80001858:	fffff097          	auipc	ra,0xfffff
    8000185c:	7bc080e7          	jalr	1980(ra) # 80001014 <freeproc>
                    release(&pp->lock);
    80001860:	8526                	mv	a0,s1
    80001862:	00005097          	auipc	ra,0x5
    80001866:	dce080e7          	jalr	-562(ra) # 80006630 <release>
                    release(&wait_lock);
    8000186a:	00007517          	auipc	a0,0x7
    8000186e:	2ce50513          	addi	a0,a0,718 # 80008b38 <wait_lock>
    80001872:	00005097          	auipc	ra,0x5
    80001876:	dbe080e7          	jalr	-578(ra) # 80006630 <release>
                    return pid;
    8000187a:	a0b5                	j	800018e6 <wait+0x106>
                        release(&pp->lock);
    8000187c:	8526                	mv	a0,s1
    8000187e:	00005097          	auipc	ra,0x5
    80001882:	db2080e7          	jalr	-590(ra) # 80006630 <release>
                        release(&wait_lock);
    80001886:	00007517          	auipc	a0,0x7
    8000188a:	2b250513          	addi	a0,a0,690 # 80008b38 <wait_lock>
    8000188e:	00005097          	auipc	ra,0x5
    80001892:	da2080e7          	jalr	-606(ra) # 80006630 <release>
                        return -1;
    80001896:	59fd                	li	s3,-1
    80001898:	a0b9                	j	800018e6 <wait+0x106>
        for (pp = proc; pp < &proc[NPROC]; pp++)
    8000189a:	5e848493          	addi	s1,s1,1512
    8000189e:	03348463          	beq	s1,s3,800018c6 <wait+0xe6>
            if (pp->parent == p)
    800018a2:	7c9c                	ld	a5,56(s1)
    800018a4:	ff279be3          	bne	a5,s2,8000189a <wait+0xba>
                acquire(&pp->lock);
    800018a8:	8526                	mv	a0,s1
    800018aa:	00005097          	auipc	ra,0x5
    800018ae:	cd2080e7          	jalr	-814(ra) # 8000657c <acquire>
                if (pp->state == ZOMBIE)
    800018b2:	4c9c                	lw	a5,24(s1)
    800018b4:	f94781e3          	beq	a5,s4,80001836 <wait+0x56>
                release(&pp->lock);
    800018b8:	8526                	mv	a0,s1
    800018ba:	00005097          	auipc	ra,0x5
    800018be:	d76080e7          	jalr	-650(ra) # 80006630 <release>
                havekids = 1;
    800018c2:	8756                	mv	a4,s5
    800018c4:	bfd9                	j	8000189a <wait+0xba>
        if (!havekids || killed(p))
    800018c6:	c719                	beqz	a4,800018d4 <wait+0xf4>
    800018c8:	854a                	mv	a0,s2
    800018ca:	00000097          	auipc	ra,0x0
    800018ce:	ee4080e7          	jalr	-284(ra) # 800017ae <killed>
    800018d2:	c51d                	beqz	a0,80001900 <wait+0x120>
            release(&wait_lock);
    800018d4:	00007517          	auipc	a0,0x7
    800018d8:	26450513          	addi	a0,a0,612 # 80008b38 <wait_lock>
    800018dc:	00005097          	auipc	ra,0x5
    800018e0:	d54080e7          	jalr	-684(ra) # 80006630 <release>
            return -1;
    800018e4:	59fd                	li	s3,-1
}
    800018e6:	854e                	mv	a0,s3
    800018e8:	60a6                	ld	ra,72(sp)
    800018ea:	6406                	ld	s0,64(sp)
    800018ec:	74e2                	ld	s1,56(sp)
    800018ee:	7942                	ld	s2,48(sp)
    800018f0:	79a2                	ld	s3,40(sp)
    800018f2:	7a02                	ld	s4,32(sp)
    800018f4:	6ae2                	ld	s5,24(sp)
    800018f6:	6b42                	ld	s6,16(sp)
    800018f8:	6ba2                	ld	s7,8(sp)
    800018fa:	6c02                	ld	s8,0(sp)
    800018fc:	6161                	addi	sp,sp,80
    800018fe:	8082                	ret
        sleep(p, &wait_lock); // DOC: wait-sleep
    80001900:	85e2                	mv	a1,s8
    80001902:	854a                	mv	a0,s2
    80001904:	00000097          	auipc	ra,0x0
    80001908:	c02080e7          	jalr	-1022(ra) # 80001506 <sleep>
        havekids = 0;
    8000190c:	bf39                	j	8000182a <wait+0x4a>

000000008000190e <either_copyout>:

// Copy to either a user address, or kernel address,
// depending on usr_dst.
// Returns 0 on success, -1 on error.
int either_copyout(int user_dst, uint64 dst, void *src, uint64 len)
{
    8000190e:	7179                	addi	sp,sp,-48
    80001910:	f406                	sd	ra,40(sp)
    80001912:	f022                	sd	s0,32(sp)
    80001914:	ec26                	sd	s1,24(sp)
    80001916:	e84a                	sd	s2,16(sp)
    80001918:	e44e                	sd	s3,8(sp)
    8000191a:	e052                	sd	s4,0(sp)
    8000191c:	1800                	addi	s0,sp,48
    8000191e:	84aa                	mv	s1,a0
    80001920:	892e                	mv	s2,a1
    80001922:	89b2                	mv	s3,a2
    80001924:	8a36                	mv	s4,a3
    struct proc *p = myproc();
    80001926:	fffff097          	auipc	ra,0xfffff
    8000192a:	53c080e7          	jalr	1340(ra) # 80000e62 <myproc>
    if (user_dst)
    8000192e:	c08d                	beqz	s1,80001950 <either_copyout+0x42>
    {
        return copyout(p->pagetable, dst, src, len);
    80001930:	86d2                	mv	a3,s4
    80001932:	864e                	mv	a2,s3
    80001934:	85ca                	mv	a1,s2
    80001936:	6928                	ld	a0,80(a0)
    80001938:	fffff097          	auipc	ra,0xfffff
    8000193c:	1e8080e7          	jalr	488(ra) # 80000b20 <copyout>
    else
    {
        memmove((char *)dst, src, len);
        return 0;
    }
}
    80001940:	70a2                	ld	ra,40(sp)
    80001942:	7402                	ld	s0,32(sp)
    80001944:	64e2                	ld	s1,24(sp)
    80001946:	6942                	ld	s2,16(sp)
    80001948:	69a2                	ld	s3,8(sp)
    8000194a:	6a02                	ld	s4,0(sp)
    8000194c:	6145                	addi	sp,sp,48
    8000194e:	8082                	ret
        memmove((char *)dst, src, len);
    80001950:	000a061b          	sext.w	a2,s4
    80001954:	85ce                	mv	a1,s3
    80001956:	854a                	mv	a0,s2
    80001958:	fffff097          	auipc	ra,0xfffff
    8000195c:	880080e7          	jalr	-1920(ra) # 800001d8 <memmove>
        return 0;
    80001960:	8526                	mv	a0,s1
    80001962:	bff9                	j	80001940 <either_copyout+0x32>

0000000080001964 <either_copyin>:

// Copy from either a user address, or kernel address,
// depending on usr_src.
// Returns 0 on success, -1 on error.
int either_copyin(void *dst, int user_src, uint64 src, uint64 len)
{
    80001964:	7179                	addi	sp,sp,-48
    80001966:	f406                	sd	ra,40(sp)
    80001968:	f022                	sd	s0,32(sp)
    8000196a:	ec26                	sd	s1,24(sp)
    8000196c:	e84a                	sd	s2,16(sp)
    8000196e:	e44e                	sd	s3,8(sp)
    80001970:	e052                	sd	s4,0(sp)
    80001972:	1800                	addi	s0,sp,48
    80001974:	892a                	mv	s2,a0
    80001976:	84ae                	mv	s1,a1
    80001978:	89b2                	mv	s3,a2
    8000197a:	8a36                	mv	s4,a3
    struct proc *p = myproc();
    8000197c:	fffff097          	auipc	ra,0xfffff
    80001980:	4e6080e7          	jalr	1254(ra) # 80000e62 <myproc>
    if (user_src)
    80001984:	c08d                	beqz	s1,800019a6 <either_copyin+0x42>
    {
        return copyin(p->pagetable, dst, src, len);
    80001986:	86d2                	mv	a3,s4
    80001988:	864e                	mv	a2,s3
    8000198a:	85ca                	mv	a1,s2
    8000198c:	6928                	ld	a0,80(a0)
    8000198e:	fffff097          	auipc	ra,0xfffff
    80001992:	21e080e7          	jalr	542(ra) # 80000bac <copyin>
    else
    {
        memmove(dst, (char *)src, len);
        return 0;
    }
}
    80001996:	70a2                	ld	ra,40(sp)
    80001998:	7402                	ld	s0,32(sp)
    8000199a:	64e2                	ld	s1,24(sp)
    8000199c:	6942                	ld	s2,16(sp)
    8000199e:	69a2                	ld	s3,8(sp)
    800019a0:	6a02                	ld	s4,0(sp)
    800019a2:	6145                	addi	sp,sp,48
    800019a4:	8082                	ret
        memmove(dst, (char *)src, len);
    800019a6:	000a061b          	sext.w	a2,s4
    800019aa:	85ce                	mv	a1,s3
    800019ac:	854a                	mv	a0,s2
    800019ae:	fffff097          	auipc	ra,0xfffff
    800019b2:	82a080e7          	jalr	-2006(ra) # 800001d8 <memmove>
        return 0;
    800019b6:	8526                	mv	a0,s1
    800019b8:	bff9                	j	80001996 <either_copyin+0x32>

00000000800019ba <procdump>:

// Print a process listing to console.  For debugging.
// Runs when user types ^P on console.
// No lock to avoid wedging a stuck machine further.
void procdump(void)
{
    800019ba:	715d                	addi	sp,sp,-80
    800019bc:	e486                	sd	ra,72(sp)
    800019be:	e0a2                	sd	s0,64(sp)
    800019c0:	fc26                	sd	s1,56(sp)
    800019c2:	f84a                	sd	s2,48(sp)
    800019c4:	f44e                	sd	s3,40(sp)
    800019c6:	f052                	sd	s4,32(sp)
    800019c8:	ec56                	sd	s5,24(sp)
    800019ca:	e85a                	sd	s6,16(sp)
    800019cc:	e45e                	sd	s7,8(sp)
    800019ce:	0880                	addi	s0,sp,80
        [RUNNING] "run   ",
        [ZOMBIE] "zombie"};
    struct proc *p;
    char *state;

    printf("\n");
    800019d0:	00006517          	auipc	a0,0x6
    800019d4:	67850513          	addi	a0,a0,1656 # 80008048 <etext+0x48>
    800019d8:	00004097          	auipc	ra,0x4
    800019dc:	6a4080e7          	jalr	1700(ra) # 8000607c <printf>
    for (p = proc; p < &proc[NPROC]; p++)
    800019e0:	00007497          	auipc	s1,0x7
    800019e4:	6c848493          	addi	s1,s1,1736 # 800090a8 <proc+0x158>
    800019e8:	0001f917          	auipc	s2,0x1f
    800019ec:	0c090913          	addi	s2,s2,192 # 80020aa8 <bcache+0x140>
    {
        if (p->state == UNUSED)
            continue;
        if (p->state >= 0 && p->state < NELEM(states) && states[p->state])
    800019f0:	4b15                	li	s6,5
            state = states[p->state];
        else
            state = "???";
    800019f2:	00007997          	auipc	s3,0x7
    800019f6:	80698993          	addi	s3,s3,-2042 # 800081f8 <etext+0x1f8>
        printf("%d %s %s", p->pid, state, p->name);
    800019fa:	00007a97          	auipc	s5,0x7
    800019fe:	806a8a93          	addi	s5,s5,-2042 # 80008200 <etext+0x200>
        printf("\n");
    80001a02:	00006a17          	auipc	s4,0x6
    80001a06:	646a0a13          	addi	s4,s4,1606 # 80008048 <etext+0x48>
        if (p->state >= 0 && p->state < NELEM(states) && states[p->state])
    80001a0a:	00007b97          	auipc	s7,0x7
    80001a0e:	836b8b93          	addi	s7,s7,-1994 # 80008240 <states.1738>
    80001a12:	a00d                	j	80001a34 <procdump+0x7a>
        printf("%d %s %s", p->pid, state, p->name);
    80001a14:	ed86a583          	lw	a1,-296(a3)
    80001a18:	8556                	mv	a0,s5
    80001a1a:	00004097          	auipc	ra,0x4
    80001a1e:	662080e7          	jalr	1634(ra) # 8000607c <printf>
        printf("\n");
    80001a22:	8552                	mv	a0,s4
    80001a24:	00004097          	auipc	ra,0x4
    80001a28:	658080e7          	jalr	1624(ra) # 8000607c <printf>
    for (p = proc; p < &proc[NPROC]; p++)
    80001a2c:	5e848493          	addi	s1,s1,1512
    80001a30:	03248163          	beq	s1,s2,80001a52 <procdump+0x98>
        if (p->state == UNUSED)
    80001a34:	86a6                	mv	a3,s1
    80001a36:	ec04a783          	lw	a5,-320(s1)
    80001a3a:	dbed                	beqz	a5,80001a2c <procdump+0x72>
            state = "???";
    80001a3c:	864e                	mv	a2,s3
        if (p->state >= 0 && p->state < NELEM(states) && states[p->state])
    80001a3e:	fcfb6be3          	bltu	s6,a5,80001a14 <procdump+0x5a>
    80001a42:	1782                	slli	a5,a5,0x20
    80001a44:	9381                	srli	a5,a5,0x20
    80001a46:	078e                	slli	a5,a5,0x3
    80001a48:	97de                	add	a5,a5,s7
    80001a4a:	6390                	ld	a2,0(a5)
    80001a4c:	f661                	bnez	a2,80001a14 <procdump+0x5a>
            state = "???";
    80001a4e:	864e                	mv	a2,s3
    80001a50:	b7d1                	j	80001a14 <procdump+0x5a>
    }
}
    80001a52:	60a6                	ld	ra,72(sp)
    80001a54:	6406                	ld	s0,64(sp)
    80001a56:	74e2                	ld	s1,56(sp)
    80001a58:	7942                	ld	s2,48(sp)
    80001a5a:	79a2                	ld	s3,40(sp)
    80001a5c:	7a02                	ld	s4,32(sp)
    80001a5e:	6ae2                	ld	s5,24(sp)
    80001a60:	6b42                	ld	s6,16(sp)
    80001a62:	6ba2                	ld	s7,8(sp)
    80001a64:	6161                	addi	sp,sp,80
    80001a66:	8082                	ret

0000000080001a68 <swtch>:
    80001a68:	00153023          	sd	ra,0(a0)
    80001a6c:	00253423          	sd	sp,8(a0)
    80001a70:	e900                	sd	s0,16(a0)
    80001a72:	ed04                	sd	s1,24(a0)
    80001a74:	03253023          	sd	s2,32(a0)
    80001a78:	03353423          	sd	s3,40(a0)
    80001a7c:	03453823          	sd	s4,48(a0)
    80001a80:	03553c23          	sd	s5,56(a0)
    80001a84:	05653023          	sd	s6,64(a0)
    80001a88:	05753423          	sd	s7,72(a0)
    80001a8c:	05853823          	sd	s8,80(a0)
    80001a90:	05953c23          	sd	s9,88(a0)
    80001a94:	07a53023          	sd	s10,96(a0)
    80001a98:	07b53423          	sd	s11,104(a0)
    80001a9c:	0005b083          	ld	ra,0(a1)
    80001aa0:	0085b103          	ld	sp,8(a1)
    80001aa4:	6980                	ld	s0,16(a1)
    80001aa6:	6d84                	ld	s1,24(a1)
    80001aa8:	0205b903          	ld	s2,32(a1)
    80001aac:	0285b983          	ld	s3,40(a1)
    80001ab0:	0305ba03          	ld	s4,48(a1)
    80001ab4:	0385ba83          	ld	s5,56(a1)
    80001ab8:	0405bb03          	ld	s6,64(a1)
    80001abc:	0485bb83          	ld	s7,72(a1)
    80001ac0:	0505bc03          	ld	s8,80(a1)
    80001ac4:	0585bc83          	ld	s9,88(a1)
    80001ac8:	0605bd03          	ld	s10,96(a1)
    80001acc:	0685bd83          	ld	s11,104(a1)
    80001ad0:	8082                	ret

0000000080001ad2 <trapinit>:
void kernelvec();

extern int devintr();

void trapinit(void)
{
    80001ad2:	1141                	addi	sp,sp,-16
    80001ad4:	e406                	sd	ra,8(sp)
    80001ad6:	e022                	sd	s0,0(sp)
    80001ad8:	0800                	addi	s0,sp,16
    initlock(&tickslock, "time");
    80001ada:	00006597          	auipc	a1,0x6
    80001ade:	79658593          	addi	a1,a1,1942 # 80008270 <states.1738+0x30>
    80001ae2:	0001f517          	auipc	a0,0x1f
    80001ae6:	e6e50513          	addi	a0,a0,-402 # 80020950 <tickslock>
    80001aea:	00005097          	auipc	ra,0x5
    80001aee:	a02080e7          	jalr	-1534(ra) # 800064ec <initlock>
}
    80001af2:	60a2                	ld	ra,8(sp)
    80001af4:	6402                	ld	s0,0(sp)
    80001af6:	0141                	addi	sp,sp,16
    80001af8:	8082                	ret

0000000080001afa <trapinithart>:

// set up to take exceptions and traps while in the kernel.
void trapinithart(void)
{
    80001afa:	1141                	addi	sp,sp,-16
    80001afc:	e422                	sd	s0,8(sp)
    80001afe:	0800                	addi	s0,sp,16
  asm volatile("csrw stvec, %0" : : "r" (x));
    80001b00:	00004797          	auipc	a5,0x4
    80001b04:	90078793          	addi	a5,a5,-1792 # 80005400 <kernelvec>
    80001b08:	10579073          	csrw	stvec,a5
    w_stvec((uint64)kernelvec);
}
    80001b0c:	6422                	ld	s0,8(sp)
    80001b0e:	0141                	addi	sp,sp,16
    80001b10:	8082                	ret

0000000080001b12 <usertrapret>:

//
// return to user space
//
void usertrapret(void)
{
    80001b12:	1141                	addi	sp,sp,-16
    80001b14:	e406                	sd	ra,8(sp)
    80001b16:	e022                	sd	s0,0(sp)
    80001b18:	0800                	addi	s0,sp,16
    struct proc *p = myproc();
    80001b1a:	fffff097          	auipc	ra,0xfffff
    80001b1e:	348080e7          	jalr	840(ra) # 80000e62 <myproc>
  asm volatile("csrr %0, sstatus" : "=r" (x) );
    80001b22:	100027f3          	csrr	a5,sstatus
  w_sstatus(r_sstatus() & ~SSTATUS_SIE);
    80001b26:	9bf5                	andi	a5,a5,-3
  asm volatile("csrw sstatus, %0" : : "r" (x));
    80001b28:	10079073          	csrw	sstatus,a5
    // kerneltrap() to usertrap(), so turn off interrupts until
    // we're back in user space, where usertrap() is correct.
    intr_off();

    // send syscalls, interrupts, and exceptions to uservec in trampoline.S
    uint64 trampoline_uservec = TRAMPOLINE + (uservec - trampoline);
    80001b2c:	00005617          	auipc	a2,0x5
    80001b30:	4d460613          	addi	a2,a2,1236 # 80007000 <_trampoline>
    80001b34:	00005697          	auipc	a3,0x5
    80001b38:	4cc68693          	addi	a3,a3,1228 # 80007000 <_trampoline>
    80001b3c:	8e91                	sub	a3,a3,a2
    80001b3e:	040007b7          	lui	a5,0x4000
    80001b42:	17fd                	addi	a5,a5,-1
    80001b44:	07b2                	slli	a5,a5,0xc
    80001b46:	96be                	add	a3,a3,a5
  asm volatile("csrw stvec, %0" : : "r" (x));
    80001b48:	10569073          	csrw	stvec,a3
    w_stvec(trampoline_uservec);

    // set up trapframe values that uservec will need when
    // the process next traps into the kernel.
    p->trapframe->kernel_satp = r_satp();         // kernel page table
    80001b4c:	6d38                	ld	a4,88(a0)
  asm volatile("csrr %0, satp" : "=r" (x) );
    80001b4e:	180026f3          	csrr	a3,satp
    80001b52:	e314                	sd	a3,0(a4)
    p->trapframe->kernel_sp = p->kstack + PGSIZE; // process's kernel stack
    80001b54:	6d38                	ld	a4,88(a0)
    80001b56:	6134                	ld	a3,64(a0)
    80001b58:	6585                	lui	a1,0x1
    80001b5a:	96ae                	add	a3,a3,a1
    80001b5c:	e714                	sd	a3,8(a4)
    p->trapframe->kernel_trap = (uint64)usertrap;
    80001b5e:	6d38                	ld	a4,88(a0)
    80001b60:	00000697          	auipc	a3,0x0
    80001b64:	13068693          	addi	a3,a3,304 # 80001c90 <usertrap>
    80001b68:	eb14                	sd	a3,16(a4)
    p->trapframe->kernel_hartid = r_tp(); // hartid for cpuid()
    80001b6a:	6d38                	ld	a4,88(a0)
  asm volatile("mv %0, tp" : "=r" (x) );
    80001b6c:	8692                	mv	a3,tp
    80001b6e:	f314                	sd	a3,32(a4)
  asm volatile("csrr %0, sstatus" : "=r" (x) );
    80001b70:	100026f3          	csrr	a3,sstatus
    // set up the registers that trampoline.S's sret will use
    // to get to user space.

    // set S Previous Privilege mode to User.
    unsigned long x = r_sstatus();
    x &= ~SSTATUS_SPP; // clear SPP to 0 for user mode
    80001b74:	eff6f693          	andi	a3,a3,-257
    x |= SSTATUS_SPIE; // enable interrupts in user mode
    80001b78:	0206e693          	ori	a3,a3,32
  asm volatile("csrw sstatus, %0" : : "r" (x));
    80001b7c:	10069073          	csrw	sstatus,a3
    w_sstatus(x);

    // set S Exception Program Counter to the saved user pc.
    w_sepc(p->trapframe->epc);
    80001b80:	6d38                	ld	a4,88(a0)
  asm volatile("csrw sepc, %0" : : "r" (x));
    80001b82:	6f18                	ld	a4,24(a4)
    80001b84:	14171073          	csrw	sepc,a4

    // tell trampoline.S the user page table to switch to.
    uint64 satp = MAKE_SATP(p->pagetable);
    80001b88:	6928                	ld	a0,80(a0)
    80001b8a:	8131                	srli	a0,a0,0xc

    // jump to userret in trampoline.S at the top of memory, which
    // switches to the user page table, restores user registers,
    // and switches to user mode with sret.
    uint64 trampoline_userret = TRAMPOLINE + (userret - trampoline);
    80001b8c:	00005717          	auipc	a4,0x5
    80001b90:	51070713          	addi	a4,a4,1296 # 8000709c <userret>
    80001b94:	8f11                	sub	a4,a4,a2
    80001b96:	97ba                	add	a5,a5,a4
    ((void (*)(uint64))trampoline_userret)(satp);
    80001b98:	577d                	li	a4,-1
    80001b9a:	177e                	slli	a4,a4,0x3f
    80001b9c:	8d59                	or	a0,a0,a4
    80001b9e:	9782                	jalr	a5
}
    80001ba0:	60a2                	ld	ra,8(sp)
    80001ba2:	6402                	ld	s0,0(sp)
    80001ba4:	0141                	addi	sp,sp,16
    80001ba6:	8082                	ret

0000000080001ba8 <clockintr>:
    w_sepc(sepc);
    w_sstatus(sstatus);
}

void clockintr()
{
    80001ba8:	1101                	addi	sp,sp,-32
    80001baa:	ec06                	sd	ra,24(sp)
    80001bac:	e822                	sd	s0,16(sp)
    80001bae:	e426                	sd	s1,8(sp)
    80001bb0:	1000                	addi	s0,sp,32
    acquire(&tickslock);
    80001bb2:	0001f497          	auipc	s1,0x1f
    80001bb6:	d9e48493          	addi	s1,s1,-610 # 80020950 <tickslock>
    80001bba:	8526                	mv	a0,s1
    80001bbc:	00005097          	auipc	ra,0x5
    80001bc0:	9c0080e7          	jalr	-1600(ra) # 8000657c <acquire>
    ticks++;
    80001bc4:	00007517          	auipc	a0,0x7
    80001bc8:	f2450513          	addi	a0,a0,-220 # 80008ae8 <ticks>
    80001bcc:	411c                	lw	a5,0(a0)
    80001bce:	2785                	addiw	a5,a5,1
    80001bd0:	c11c                	sw	a5,0(a0)
    wakeup(&ticks);
    80001bd2:	00000097          	auipc	ra,0x0
    80001bd6:	998080e7          	jalr	-1640(ra) # 8000156a <wakeup>
    release(&tickslock);
    80001bda:	8526                	mv	a0,s1
    80001bdc:	00005097          	auipc	ra,0x5
    80001be0:	a54080e7          	jalr	-1452(ra) # 80006630 <release>
}
    80001be4:	60e2                	ld	ra,24(sp)
    80001be6:	6442                	ld	s0,16(sp)
    80001be8:	64a2                	ld	s1,8(sp)
    80001bea:	6105                	addi	sp,sp,32
    80001bec:	8082                	ret

0000000080001bee <devintr>:
// and handle it.
// returns 2 if timer interrupt,
// 1 if other device,
// 0 if not recognized.
int devintr()
{
    80001bee:	1101                	addi	sp,sp,-32
    80001bf0:	ec06                	sd	ra,24(sp)
    80001bf2:	e822                	sd	s0,16(sp)
    80001bf4:	e426                	sd	s1,8(sp)
    80001bf6:	1000                	addi	s0,sp,32
  asm volatile("csrr %0, scause" : "=r" (x) );
    80001bf8:	14202773          	csrr	a4,scause
    uint64 scause = r_scause();

    if ((scause & 0x8000000000000000L) &&
    80001bfc:	00074d63          	bltz	a4,80001c16 <devintr+0x28>
        if (irq)
            plic_complete(irq);

        return 1;
    }
    else if (scause == 0x8000000000000001L)
    80001c00:	57fd                	li	a5,-1
    80001c02:	17fe                	slli	a5,a5,0x3f
    80001c04:	0785                	addi	a5,a5,1

        return 2;
    }
    else
    {
        return 0;
    80001c06:	4501                	li	a0,0
    else if (scause == 0x8000000000000001L)
    80001c08:	06f70363          	beq	a4,a5,80001c6e <devintr+0x80>
    }
}
    80001c0c:	60e2                	ld	ra,24(sp)
    80001c0e:	6442                	ld	s0,16(sp)
    80001c10:	64a2                	ld	s1,8(sp)
    80001c12:	6105                	addi	sp,sp,32
    80001c14:	8082                	ret
        (scause & 0xff) == 9)
    80001c16:	0ff77793          	andi	a5,a4,255
    if ((scause & 0x8000000000000000L) &&
    80001c1a:	46a5                	li	a3,9
    80001c1c:	fed792e3          	bne	a5,a3,80001c00 <devintr+0x12>
        int irq = plic_claim();
    80001c20:	00004097          	auipc	ra,0x4
    80001c24:	8e8080e7          	jalr	-1816(ra) # 80005508 <plic_claim>
    80001c28:	84aa                	mv	s1,a0
        if (irq == UART0_IRQ)
    80001c2a:	47a9                	li	a5,10
    80001c2c:	02f50763          	beq	a0,a5,80001c5a <devintr+0x6c>
        else if (irq == VIRTIO0_IRQ)
    80001c30:	4785                	li	a5,1
    80001c32:	02f50963          	beq	a0,a5,80001c64 <devintr+0x76>
        return 1;
    80001c36:	4505                	li	a0,1
        else if (irq)
    80001c38:	d8f1                	beqz	s1,80001c0c <devintr+0x1e>
            printf("unexpected interrupt irq=%d\n", irq);
    80001c3a:	85a6                	mv	a1,s1
    80001c3c:	00006517          	auipc	a0,0x6
    80001c40:	63c50513          	addi	a0,a0,1596 # 80008278 <states.1738+0x38>
    80001c44:	00004097          	auipc	ra,0x4
    80001c48:	438080e7          	jalr	1080(ra) # 8000607c <printf>
            plic_complete(irq);
    80001c4c:	8526                	mv	a0,s1
    80001c4e:	00004097          	auipc	ra,0x4
    80001c52:	8de080e7          	jalr	-1826(ra) # 8000552c <plic_complete>
        return 1;
    80001c56:	4505                	li	a0,1
    80001c58:	bf55                	j	80001c0c <devintr+0x1e>
            uartintr();
    80001c5a:	00005097          	auipc	ra,0x5
    80001c5e:	842080e7          	jalr	-1982(ra) # 8000649c <uartintr>
    80001c62:	b7ed                	j	80001c4c <devintr+0x5e>
            virtio_disk_intr();
    80001c64:	00004097          	auipc	ra,0x4
    80001c68:	df2080e7          	jalr	-526(ra) # 80005a56 <virtio_disk_intr>
    80001c6c:	b7c5                	j	80001c4c <devintr+0x5e>
        if (cpuid() == 0)
    80001c6e:	fffff097          	auipc	ra,0xfffff
    80001c72:	1c8080e7          	jalr	456(ra) # 80000e36 <cpuid>
    80001c76:	c901                	beqz	a0,80001c86 <devintr+0x98>
  asm volatile("csrr %0, sip" : "=r" (x) );
    80001c78:	144027f3          	csrr	a5,sip
        w_sip(r_sip() & ~2);
    80001c7c:	9bf5                	andi	a5,a5,-3
  asm volatile("csrw sip, %0" : : "r" (x));
    80001c7e:	14479073          	csrw	sip,a5
        return 2;
    80001c82:	4509                	li	a0,2
    80001c84:	b761                	j	80001c0c <devintr+0x1e>
            clockintr();
    80001c86:	00000097          	auipc	ra,0x0
    80001c8a:	f22080e7          	jalr	-222(ra) # 80001ba8 <clockintr>
    80001c8e:	b7ed                	j	80001c78 <devintr+0x8a>

0000000080001c90 <usertrap>:
{
    80001c90:	7139                	addi	sp,sp,-64
    80001c92:	fc06                	sd	ra,56(sp)
    80001c94:	f822                	sd	s0,48(sp)
    80001c96:	f426                	sd	s1,40(sp)
    80001c98:	f04a                	sd	s2,32(sp)
    80001c9a:	ec4e                	sd	s3,24(sp)
    80001c9c:	e852                	sd	s4,16(sp)
    80001c9e:	e456                	sd	s5,8(sp)
    80001ca0:	e05a                	sd	s6,0(sp)
    80001ca2:	0080                	addi	s0,sp,64
  asm volatile("csrr %0, sstatus" : "=r" (x) );
    80001ca4:	100027f3          	csrr	a5,sstatus
    if ((r_sstatus() & SSTATUS_SPP) != 0)
    80001ca8:	1007f793          	andi	a5,a5,256
    80001cac:	e7c1                	bnez	a5,80001d34 <usertrap+0xa4>
  asm volatile("csrw stvec, %0" : : "r" (x));
    80001cae:	00003797          	auipc	a5,0x3
    80001cb2:	75278793          	addi	a5,a5,1874 # 80005400 <kernelvec>
    80001cb6:	10579073          	csrw	stvec,a5
    struct proc *p = myproc();
    80001cba:	fffff097          	auipc	ra,0xfffff
    80001cbe:	1a8080e7          	jalr	424(ra) # 80000e62 <myproc>
    80001cc2:	892a                	mv	s2,a0
    p->trapframe->epc = r_sepc();
    80001cc4:	6d3c                	ld	a5,88(a0)
  asm volatile("csrr %0, sepc" : "=r" (x) );
    80001cc6:	14102773          	csrr	a4,sepc
    80001cca:	ef98                	sd	a4,24(a5)
  asm volatile("csrr %0, scause" : "=r" (x) );
    80001ccc:	14202773          	csrr	a4,scause
    if (r_scause() == 8)
    80001cd0:	47a1                	li	a5,8
    80001cd2:	06f70963          	beq	a4,a5,80001d44 <usertrap+0xb4>
    else if ((which_dev = devintr()) != 0)
    80001cd6:	00000097          	auipc	ra,0x0
    80001cda:	f18080e7          	jalr	-232(ra) # 80001bee <devintr>
    80001cde:	84aa                	mv	s1,a0
    80001ce0:	18051063          	bnez	a0,80001e60 <usertrap+0x1d0>
    80001ce4:	14202773          	csrr	a4,scause
    else if (r_scause() == 13 || r_scause() == 15)
    80001ce8:	47b5                	li	a5,13
    80001cea:	0af70b63          	beq	a4,a5,80001da0 <usertrap+0x110>
    80001cee:	14202773          	csrr	a4,scause
    80001cf2:	47bd                	li	a5,15
    80001cf4:	0af70663          	beq	a4,a5,80001da0 <usertrap+0x110>
    80001cf8:	142025f3          	csrr	a1,scause
        printf("usertrap(): unexpected scause %p pid=%d\n", r_scause(), p->pid);
    80001cfc:	03092603          	lw	a2,48(s2)
    80001d00:	00006517          	auipc	a0,0x6
    80001d04:	5e050513          	addi	a0,a0,1504 # 800082e0 <states.1738+0xa0>
    80001d08:	00004097          	auipc	ra,0x4
    80001d0c:	374080e7          	jalr	884(ra) # 8000607c <printf>
  asm volatile("csrr %0, sepc" : "=r" (x) );
    80001d10:	141025f3          	csrr	a1,sepc
  asm volatile("csrr %0, stval" : "=r" (x) );
    80001d14:	14302673          	csrr	a2,stval
        printf("            sepc=%p stval=%p\n", r_sepc(), r_stval());
    80001d18:	00006517          	auipc	a0,0x6
    80001d1c:	5f850513          	addi	a0,a0,1528 # 80008310 <states.1738+0xd0>
    80001d20:	00004097          	auipc	ra,0x4
    80001d24:	35c080e7          	jalr	860(ra) # 8000607c <printf>
        setkilled(p);
    80001d28:	854a                	mv	a0,s2
    80001d2a:	00000097          	auipc	ra,0x0
    80001d2e:	a58080e7          	jalr	-1448(ra) # 80001782 <setkilled>
    80001d32:	a82d                	j	80001d6c <usertrap+0xdc>
        panic("usertrap: not from user mode");
    80001d34:	00006517          	auipc	a0,0x6
    80001d38:	56450513          	addi	a0,a0,1380 # 80008298 <states.1738+0x58>
    80001d3c:	00004097          	auipc	ra,0x4
    80001d40:	2f6080e7          	jalr	758(ra) # 80006032 <panic>
        if (killed(p))
    80001d44:	00000097          	auipc	ra,0x0
    80001d48:	a6a080e7          	jalr	-1430(ra) # 800017ae <killed>
    80001d4c:	e521                	bnez	a0,80001d94 <usertrap+0x104>
        p->trapframe->epc += 4;
    80001d4e:	05893703          	ld	a4,88(s2)
    80001d52:	6f1c                	ld	a5,24(a4)
    80001d54:	0791                	addi	a5,a5,4
    80001d56:	ef1c                	sd	a5,24(a4)
  asm volatile("csrr %0, sstatus" : "=r" (x) );
    80001d58:	100027f3          	csrr	a5,sstatus
  w_sstatus(r_sstatus() | SSTATUS_SIE);
    80001d5c:	0027e793          	ori	a5,a5,2
  asm volatile("csrw sstatus, %0" : : "r" (x));
    80001d60:	10079073          	csrw	sstatus,a5
        syscall();
    80001d64:	00000097          	auipc	ra,0x0
    80001d68:	370080e7          	jalr	880(ra) # 800020d4 <syscall>
    if (killed(p))
    80001d6c:	854a                	mv	a0,s2
    80001d6e:	00000097          	auipc	ra,0x0
    80001d72:	a40080e7          	jalr	-1472(ra) # 800017ae <killed>
    80001d76:	ed65                	bnez	a0,80001e6e <usertrap+0x1de>
    usertrapret();
    80001d78:	00000097          	auipc	ra,0x0
    80001d7c:	d9a080e7          	jalr	-614(ra) # 80001b12 <usertrapret>
}
    80001d80:	70e2                	ld	ra,56(sp)
    80001d82:	7442                	ld	s0,48(sp)
    80001d84:	74a2                	ld	s1,40(sp)
    80001d86:	7902                	ld	s2,32(sp)
    80001d88:	69e2                	ld	s3,24(sp)
    80001d8a:	6a42                	ld	s4,16(sp)
    80001d8c:	6aa2                	ld	s5,8(sp)
    80001d8e:	6b02                	ld	s6,0(sp)
    80001d90:	6121                	addi	sp,sp,64
    80001d92:	8082                	ret
            exit(-1);
    80001d94:	557d                	li	a0,-1
    80001d96:	00000097          	auipc	ra,0x0
    80001d9a:	8a4080e7          	jalr	-1884(ra) # 8000163a <exit>
    80001d9e:	bf45                	j	80001d4e <usertrap+0xbe>
        struct proc *p_proc = myproc();
    80001da0:	fffff097          	auipc	ra,0xfffff
    80001da4:	0c2080e7          	jalr	194(ra) # 80000e62 <myproc>
    80001da8:	8a2a                	mv	s4,a0
  asm volatile("csrr %0, stval" : "=r" (x) );
    80001daa:	143029f3          	csrr	s3,stval
        for (int i = 0; i <= VMASIZE - 1; i++)
    80001dae:	16850793          	addi	a5,a0,360
            if (p_proc->vma[i].occupied == 1)
    80001db2:	4605                	li	a2,1
        for (int i = 0; i <= VMASIZE - 1; i++)
    80001db4:	45c1                	li	a1,16
    80001db6:	a031                	j	80001dc2 <usertrap+0x132>
    80001db8:	2485                	addiw	s1,s1,1
    80001dba:	04878793          	addi	a5,a5,72
    80001dbe:	08b48863          	beq	s1,a1,80001e4e <usertrap+0x1be>
            if (p_proc->vma[i].occupied == 1)
    80001dc2:	4398                	lw	a4,0(a5)
    80001dc4:	fec71ae3          	bne	a4,a2,80001db8 <usertrap+0x128>
                if (p_proc->vma[i].start_addr <= va && va <= p_proc->vma[i].end_addr)
    80001dc8:	6798                	ld	a4,8(a5)
    80001dca:	fee9e7e3          	bltu	s3,a4,80001db8 <usertrap+0x128>
    80001dce:	6b98                	ld	a4,16(a5)
    80001dd0:	ff3764e3          	bltu	a4,s3,80001db8 <usertrap+0x128>
            char *mem = (char *)kalloc();
    80001dd4:	ffffe097          	auipc	ra,0xffffe
    80001dd8:	344080e7          	jalr	836(ra) # 80000118 <kalloc>
    80001ddc:	8b2a                	mv	s6,a0
            if (mem == 0)
    80001dde:	c135                	beqz	a0,80001e42 <usertrap+0x1b2>
                memset(mem, 0, PGSIZE);
    80001de0:	6605                	lui	a2,0x1
    80001de2:	4581                	li	a1,0
    80001de4:	ffffe097          	auipc	ra,0xffffe
    80001de8:	394080e7          	jalr	916(ra) # 80000178 <memset>
                mapfile(p_vma->pf, mem, va - p_vma->start_addr);
    80001dec:	00349a93          	slli	s5,s1,0x3
    80001df0:	009a87b3          	add	a5,s5,s1
    80001df4:	078e                	slli	a5,a5,0x3
    80001df6:	97d2                	add	a5,a5,s4
    80001df8:	1707b603          	ld	a2,368(a5)
    80001dfc:	40c9863b          	subw	a2,s3,a2
    80001e00:	85da                	mv	a1,s6
    80001e02:	1a87b503          	ld	a0,424(a5)
    80001e06:	00002097          	auipc	ra,0x2
    80001e0a:	d98080e7          	jalr	-616(ra) # 80003b9e <mapfile>
                if (mappages(p_proc->pagetable, va, PGSIZE, (uint64)mem, (p_vma->prot | PTE_R | PTE_X | PTE_W | PTE_U)) == -1)
    80001e0e:	009a87b3          	add	a5,s5,s1
    80001e12:	078e                	slli	a5,a5,0x3
    80001e14:	97d2                	add	a5,a5,s4
    80001e16:	1907a703          	lw	a4,400(a5)
    80001e1a:	01e76713          	ori	a4,a4,30
    80001e1e:	86da                	mv	a3,s6
    80001e20:	6605                	lui	a2,0x1
    80001e22:	85ce                	mv	a1,s3
    80001e24:	050a3503          	ld	a0,80(s4)
    80001e28:	ffffe097          	auipc	ra,0xffffe
    80001e2c:	724080e7          	jalr	1828(ra) # 8000054c <mappages>
    80001e30:	57fd                	li	a5,-1
    80001e32:	f2f51de3          	bne	a0,a5,80001d6c <usertrap+0xdc>
                    setkilled(p_proc);
    80001e36:	8552                	mv	a0,s4
    80001e38:	00000097          	auipc	ra,0x0
    80001e3c:	94a080e7          	jalr	-1718(ra) # 80001782 <setkilled>
    80001e40:	b735                	j	80001d6c <usertrap+0xdc>
                setkilled(p_proc);
    80001e42:	8552                	mv	a0,s4
    80001e44:	00000097          	auipc	ra,0x0
    80001e48:	93e080e7          	jalr	-1730(ra) # 80001782 <setkilled>
                return;
    80001e4c:	bf15                	j	80001d80 <usertrap+0xf0>
            printf("Now, after mmap, we get a page fault\n");
    80001e4e:	00006517          	auipc	a0,0x6
    80001e52:	46a50513          	addi	a0,a0,1130 # 800082b8 <states.1738+0x78>
    80001e56:	00004097          	auipc	ra,0x4
    80001e5a:	226080e7          	jalr	550(ra) # 8000607c <printf>
            goto err;
    80001e5e:	bd69                	j	80001cf8 <usertrap+0x68>
    if (killed(p))
    80001e60:	854a                	mv	a0,s2
    80001e62:	00000097          	auipc	ra,0x0
    80001e66:	94c080e7          	jalr	-1716(ra) # 800017ae <killed>
    80001e6a:	c901                	beqz	a0,80001e7a <usertrap+0x1ea>
    80001e6c:	a011                	j	80001e70 <usertrap+0x1e0>
    80001e6e:	4481                	li	s1,0
        exit(-1);
    80001e70:	557d                	li	a0,-1
    80001e72:	fffff097          	auipc	ra,0xfffff
    80001e76:	7c8080e7          	jalr	1992(ra) # 8000163a <exit>
    if (which_dev == 2)
    80001e7a:	4789                	li	a5,2
    80001e7c:	eef49ee3          	bne	s1,a5,80001d78 <usertrap+0xe8>
        yield();
    80001e80:	fffff097          	auipc	ra,0xfffff
    80001e84:	64a080e7          	jalr	1610(ra) # 800014ca <yield>
    80001e88:	bdc5                	j	80001d78 <usertrap+0xe8>

0000000080001e8a <kerneltrap>:
{
    80001e8a:	7179                	addi	sp,sp,-48
    80001e8c:	f406                	sd	ra,40(sp)
    80001e8e:	f022                	sd	s0,32(sp)
    80001e90:	ec26                	sd	s1,24(sp)
    80001e92:	e84a                	sd	s2,16(sp)
    80001e94:	e44e                	sd	s3,8(sp)
    80001e96:	1800                	addi	s0,sp,48
  asm volatile("csrr %0, sepc" : "=r" (x) );
    80001e98:	14102973          	csrr	s2,sepc
  asm volatile("csrr %0, sstatus" : "=r" (x) );
    80001e9c:	100024f3          	csrr	s1,sstatus
  asm volatile("csrr %0, scause" : "=r" (x) );
    80001ea0:	142029f3          	csrr	s3,scause
    if ((sstatus & SSTATUS_SPP) == 0)
    80001ea4:	1004f793          	andi	a5,s1,256
    80001ea8:	cb85                	beqz	a5,80001ed8 <kerneltrap+0x4e>
  asm volatile("csrr %0, sstatus" : "=r" (x) );
    80001eaa:	100027f3          	csrr	a5,sstatus
  return (x & SSTATUS_SIE) != 0;
    80001eae:	8b89                	andi	a5,a5,2
    if (intr_get() != 0)
    80001eb0:	ef85                	bnez	a5,80001ee8 <kerneltrap+0x5e>
    if ((which_dev = devintr()) == 0)
    80001eb2:	00000097          	auipc	ra,0x0
    80001eb6:	d3c080e7          	jalr	-708(ra) # 80001bee <devintr>
    80001eba:	cd1d                	beqz	a0,80001ef8 <kerneltrap+0x6e>
    if (which_dev == 2 && myproc() != 0 && myproc()->state == RUNNING)
    80001ebc:	4789                	li	a5,2
    80001ebe:	06f50a63          	beq	a0,a5,80001f32 <kerneltrap+0xa8>
  asm volatile("csrw sepc, %0" : : "r" (x));
    80001ec2:	14191073          	csrw	sepc,s2
  asm volatile("csrw sstatus, %0" : : "r" (x));
    80001ec6:	10049073          	csrw	sstatus,s1
}
    80001eca:	70a2                	ld	ra,40(sp)
    80001ecc:	7402                	ld	s0,32(sp)
    80001ece:	64e2                	ld	s1,24(sp)
    80001ed0:	6942                	ld	s2,16(sp)
    80001ed2:	69a2                	ld	s3,8(sp)
    80001ed4:	6145                	addi	sp,sp,48
    80001ed6:	8082                	ret
        panic("kerneltrap: not from supervisor mode");
    80001ed8:	00006517          	auipc	a0,0x6
    80001edc:	45850513          	addi	a0,a0,1112 # 80008330 <states.1738+0xf0>
    80001ee0:	00004097          	auipc	ra,0x4
    80001ee4:	152080e7          	jalr	338(ra) # 80006032 <panic>
        panic("kerneltrap: interrupts enabled");
    80001ee8:	00006517          	auipc	a0,0x6
    80001eec:	47050513          	addi	a0,a0,1136 # 80008358 <states.1738+0x118>
    80001ef0:	00004097          	auipc	ra,0x4
    80001ef4:	142080e7          	jalr	322(ra) # 80006032 <panic>
        printf("scause %p\n", scause);
    80001ef8:	85ce                	mv	a1,s3
    80001efa:	00006517          	auipc	a0,0x6
    80001efe:	47e50513          	addi	a0,a0,1150 # 80008378 <states.1738+0x138>
    80001f02:	00004097          	auipc	ra,0x4
    80001f06:	17a080e7          	jalr	378(ra) # 8000607c <printf>
  asm volatile("csrr %0, sepc" : "=r" (x) );
    80001f0a:	141025f3          	csrr	a1,sepc
  asm volatile("csrr %0, stval" : "=r" (x) );
    80001f0e:	14302673          	csrr	a2,stval
        printf("sepc=%p stval=%p\n", r_sepc(), r_stval());
    80001f12:	00006517          	auipc	a0,0x6
    80001f16:	47650513          	addi	a0,a0,1142 # 80008388 <states.1738+0x148>
    80001f1a:	00004097          	auipc	ra,0x4
    80001f1e:	162080e7          	jalr	354(ra) # 8000607c <printf>
        panic("kerneltrap");
    80001f22:	00006517          	auipc	a0,0x6
    80001f26:	47e50513          	addi	a0,a0,1150 # 800083a0 <states.1738+0x160>
    80001f2a:	00004097          	auipc	ra,0x4
    80001f2e:	108080e7          	jalr	264(ra) # 80006032 <panic>
    if (which_dev == 2 && myproc() != 0 && myproc()->state == RUNNING)
    80001f32:	fffff097          	auipc	ra,0xfffff
    80001f36:	f30080e7          	jalr	-208(ra) # 80000e62 <myproc>
    80001f3a:	d541                	beqz	a0,80001ec2 <kerneltrap+0x38>
    80001f3c:	fffff097          	auipc	ra,0xfffff
    80001f40:	f26080e7          	jalr	-218(ra) # 80000e62 <myproc>
    80001f44:	4d18                	lw	a4,24(a0)
    80001f46:	4791                	li	a5,4
    80001f48:	f6f71de3          	bne	a4,a5,80001ec2 <kerneltrap+0x38>
        yield();
    80001f4c:	fffff097          	auipc	ra,0xfffff
    80001f50:	57e080e7          	jalr	1406(ra) # 800014ca <yield>
    80001f54:	b7bd                	j	80001ec2 <kerneltrap+0x38>

0000000080001f56 <argraw>:
    return strlen(buf);
}

static uint64
argraw(int n)
{
    80001f56:	1101                	addi	sp,sp,-32
    80001f58:	ec06                	sd	ra,24(sp)
    80001f5a:	e822                	sd	s0,16(sp)
    80001f5c:	e426                	sd	s1,8(sp)
    80001f5e:	1000                	addi	s0,sp,32
    80001f60:	84aa                	mv	s1,a0
    struct proc *p = myproc();
    80001f62:	fffff097          	auipc	ra,0xfffff
    80001f66:	f00080e7          	jalr	-256(ra) # 80000e62 <myproc>
    switch (n)
    80001f6a:	4795                	li	a5,5
    80001f6c:	0497e163          	bltu	a5,s1,80001fae <argraw+0x58>
    80001f70:	048a                	slli	s1,s1,0x2
    80001f72:	00006717          	auipc	a4,0x6
    80001f76:	46670713          	addi	a4,a4,1126 # 800083d8 <states.1738+0x198>
    80001f7a:	94ba                	add	s1,s1,a4
    80001f7c:	409c                	lw	a5,0(s1)
    80001f7e:	97ba                	add	a5,a5,a4
    80001f80:	8782                	jr	a5
    {
    case 0:
        return p->trapframe->a0;
    80001f82:	6d3c                	ld	a5,88(a0)
    80001f84:	7ba8                	ld	a0,112(a5)
    case 5:
        return p->trapframe->a5;
    }
    panic("argraw");
    return -1;
}
    80001f86:	60e2                	ld	ra,24(sp)
    80001f88:	6442                	ld	s0,16(sp)
    80001f8a:	64a2                	ld	s1,8(sp)
    80001f8c:	6105                	addi	sp,sp,32
    80001f8e:	8082                	ret
        return p->trapframe->a1;
    80001f90:	6d3c                	ld	a5,88(a0)
    80001f92:	7fa8                	ld	a0,120(a5)
    80001f94:	bfcd                	j	80001f86 <argraw+0x30>
        return p->trapframe->a2;
    80001f96:	6d3c                	ld	a5,88(a0)
    80001f98:	63c8                	ld	a0,128(a5)
    80001f9a:	b7f5                	j	80001f86 <argraw+0x30>
        return p->trapframe->a3;
    80001f9c:	6d3c                	ld	a5,88(a0)
    80001f9e:	67c8                	ld	a0,136(a5)
    80001fa0:	b7dd                	j	80001f86 <argraw+0x30>
        return p->trapframe->a4;
    80001fa2:	6d3c                	ld	a5,88(a0)
    80001fa4:	6bc8                	ld	a0,144(a5)
    80001fa6:	b7c5                	j	80001f86 <argraw+0x30>
        return p->trapframe->a5;
    80001fa8:	6d3c                	ld	a5,88(a0)
    80001faa:	6fc8                	ld	a0,152(a5)
    80001fac:	bfe9                	j	80001f86 <argraw+0x30>
    panic("argraw");
    80001fae:	00006517          	auipc	a0,0x6
    80001fb2:	40250513          	addi	a0,a0,1026 # 800083b0 <states.1738+0x170>
    80001fb6:	00004097          	auipc	ra,0x4
    80001fba:	07c080e7          	jalr	124(ra) # 80006032 <panic>

0000000080001fbe <fetchaddr>:
{
    80001fbe:	1101                	addi	sp,sp,-32
    80001fc0:	ec06                	sd	ra,24(sp)
    80001fc2:	e822                	sd	s0,16(sp)
    80001fc4:	e426                	sd	s1,8(sp)
    80001fc6:	e04a                	sd	s2,0(sp)
    80001fc8:	1000                	addi	s0,sp,32
    80001fca:	84aa                	mv	s1,a0
    80001fcc:	892e                	mv	s2,a1
    struct proc *p = myproc();
    80001fce:	fffff097          	auipc	ra,0xfffff
    80001fd2:	e94080e7          	jalr	-364(ra) # 80000e62 <myproc>
    if (addr >= p->sz || addr + sizeof(uint64) > p->sz) // both tests needed, in case of overflow
    80001fd6:	653c                	ld	a5,72(a0)
    80001fd8:	02f4f863          	bgeu	s1,a5,80002008 <fetchaddr+0x4a>
    80001fdc:	00848713          	addi	a4,s1,8
    80001fe0:	02e7e663          	bltu	a5,a4,8000200c <fetchaddr+0x4e>
    if (copyin(p->pagetable, (char *)ip, addr, sizeof(*ip)) != 0)
    80001fe4:	46a1                	li	a3,8
    80001fe6:	8626                	mv	a2,s1
    80001fe8:	85ca                	mv	a1,s2
    80001fea:	6928                	ld	a0,80(a0)
    80001fec:	fffff097          	auipc	ra,0xfffff
    80001ff0:	bc0080e7          	jalr	-1088(ra) # 80000bac <copyin>
    80001ff4:	00a03533          	snez	a0,a0
    80001ff8:	40a00533          	neg	a0,a0
}
    80001ffc:	60e2                	ld	ra,24(sp)
    80001ffe:	6442                	ld	s0,16(sp)
    80002000:	64a2                	ld	s1,8(sp)
    80002002:	6902                	ld	s2,0(sp)
    80002004:	6105                	addi	sp,sp,32
    80002006:	8082                	ret
        return -1;
    80002008:	557d                	li	a0,-1
    8000200a:	bfcd                	j	80001ffc <fetchaddr+0x3e>
    8000200c:	557d                	li	a0,-1
    8000200e:	b7fd                	j	80001ffc <fetchaddr+0x3e>

0000000080002010 <fetchstr>:
{
    80002010:	7179                	addi	sp,sp,-48
    80002012:	f406                	sd	ra,40(sp)
    80002014:	f022                	sd	s0,32(sp)
    80002016:	ec26                	sd	s1,24(sp)
    80002018:	e84a                	sd	s2,16(sp)
    8000201a:	e44e                	sd	s3,8(sp)
    8000201c:	1800                	addi	s0,sp,48
    8000201e:	892a                	mv	s2,a0
    80002020:	84ae                	mv	s1,a1
    80002022:	89b2                	mv	s3,a2
    struct proc *p = myproc();
    80002024:	fffff097          	auipc	ra,0xfffff
    80002028:	e3e080e7          	jalr	-450(ra) # 80000e62 <myproc>
    if (copyinstr(p->pagetable, buf, addr, max) < 0)
    8000202c:	86ce                	mv	a3,s3
    8000202e:	864a                	mv	a2,s2
    80002030:	85a6                	mv	a1,s1
    80002032:	6928                	ld	a0,80(a0)
    80002034:	fffff097          	auipc	ra,0xfffff
    80002038:	c04080e7          	jalr	-1020(ra) # 80000c38 <copyinstr>
    8000203c:	00054e63          	bltz	a0,80002058 <fetchstr+0x48>
    return strlen(buf);
    80002040:	8526                	mv	a0,s1
    80002042:	ffffe097          	auipc	ra,0xffffe
    80002046:	2ba080e7          	jalr	698(ra) # 800002fc <strlen>
}
    8000204a:	70a2                	ld	ra,40(sp)
    8000204c:	7402                	ld	s0,32(sp)
    8000204e:	64e2                	ld	s1,24(sp)
    80002050:	6942                	ld	s2,16(sp)
    80002052:	69a2                	ld	s3,8(sp)
    80002054:	6145                	addi	sp,sp,48
    80002056:	8082                	ret
        return -1;
    80002058:	557d                	li	a0,-1
    8000205a:	bfc5                	j	8000204a <fetchstr+0x3a>

000000008000205c <argint>:

// Fetch the nth 32-bit system call argument.
void argint(int n, int *ip)
{
    8000205c:	1101                	addi	sp,sp,-32
    8000205e:	ec06                	sd	ra,24(sp)
    80002060:	e822                	sd	s0,16(sp)
    80002062:	e426                	sd	s1,8(sp)
    80002064:	1000                	addi	s0,sp,32
    80002066:	84ae                	mv	s1,a1
    *ip = argraw(n);
    80002068:	00000097          	auipc	ra,0x0
    8000206c:	eee080e7          	jalr	-274(ra) # 80001f56 <argraw>
    80002070:	c088                	sw	a0,0(s1)
}
    80002072:	60e2                	ld	ra,24(sp)
    80002074:	6442                	ld	s0,16(sp)
    80002076:	64a2                	ld	s1,8(sp)
    80002078:	6105                	addi	sp,sp,32
    8000207a:	8082                	ret

000000008000207c <argaddr>:

// Retrieve an argument as a pointer.
// Doesn't check for legality, since
// copyin/copyout will do that.
void argaddr(int n, uint64 *ip)
{
    8000207c:	1101                	addi	sp,sp,-32
    8000207e:	ec06                	sd	ra,24(sp)
    80002080:	e822                	sd	s0,16(sp)
    80002082:	e426                	sd	s1,8(sp)
    80002084:	1000                	addi	s0,sp,32
    80002086:	84ae                	mv	s1,a1
    *ip = argraw(n);
    80002088:	00000097          	auipc	ra,0x0
    8000208c:	ece080e7          	jalr	-306(ra) # 80001f56 <argraw>
    80002090:	e088                	sd	a0,0(s1)
}
    80002092:	60e2                	ld	ra,24(sp)
    80002094:	6442                	ld	s0,16(sp)
    80002096:	64a2                	ld	s1,8(sp)
    80002098:	6105                	addi	sp,sp,32
    8000209a:	8082                	ret

000000008000209c <argstr>:

// Fetch the nth word-sized system call argument as a null-terminated string.
// Copies into buf, at most max.
// Returns string length if OK (including nul), -1 if error.
int argstr(int n, char *buf, int max)
{
    8000209c:	7179                	addi	sp,sp,-48
    8000209e:	f406                	sd	ra,40(sp)
    800020a0:	f022                	sd	s0,32(sp)
    800020a2:	ec26                	sd	s1,24(sp)
    800020a4:	e84a                	sd	s2,16(sp)
    800020a6:	1800                	addi	s0,sp,48
    800020a8:	84ae                	mv	s1,a1
    800020aa:	8932                	mv	s2,a2
    uint64 addr;
    argaddr(n, &addr);
    800020ac:	fd840593          	addi	a1,s0,-40
    800020b0:	00000097          	auipc	ra,0x0
    800020b4:	fcc080e7          	jalr	-52(ra) # 8000207c <argaddr>
    return fetchstr(addr, buf, max);
    800020b8:	864a                	mv	a2,s2
    800020ba:	85a6                	mv	a1,s1
    800020bc:	fd843503          	ld	a0,-40(s0)
    800020c0:	00000097          	auipc	ra,0x0
    800020c4:	f50080e7          	jalr	-176(ra) # 80002010 <fetchstr>
}
    800020c8:	70a2                	ld	ra,40(sp)
    800020ca:	7402                	ld	s0,32(sp)
    800020cc:	64e2                	ld	s1,24(sp)
    800020ce:	6942                	ld	s2,16(sp)
    800020d0:	6145                	addi	sp,sp,48
    800020d2:	8082                	ret

00000000800020d4 <syscall>:
    [SYS_mmap] sys_mmap,
    [SYS_munmap] sys_munmap,
};

void syscall(void)
{
    800020d4:	1101                	addi	sp,sp,-32
    800020d6:	ec06                	sd	ra,24(sp)
    800020d8:	e822                	sd	s0,16(sp)
    800020da:	e426                	sd	s1,8(sp)
    800020dc:	e04a                	sd	s2,0(sp)
    800020de:	1000                	addi	s0,sp,32
    int num;
    struct proc *p = myproc();
    800020e0:	fffff097          	auipc	ra,0xfffff
    800020e4:	d82080e7          	jalr	-638(ra) # 80000e62 <myproc>
    800020e8:	84aa                	mv	s1,a0

    num = p->trapframe->a7;
    800020ea:	05853903          	ld	s2,88(a0)
    800020ee:	0a893783          	ld	a5,168(s2)
    800020f2:	0007869b          	sext.w	a3,a5
    if (num > 0 && num < NELEM(syscalls) && syscalls[num])
    800020f6:	37fd                	addiw	a5,a5,-1
    800020f8:	4759                	li	a4,22
    800020fa:	00f76f63          	bltu	a4,a5,80002118 <syscall+0x44>
    800020fe:	00369713          	slli	a4,a3,0x3
    80002102:	00006797          	auipc	a5,0x6
    80002106:	2ee78793          	addi	a5,a5,750 # 800083f0 <syscalls>
    8000210a:	97ba                	add	a5,a5,a4
    8000210c:	639c                	ld	a5,0(a5)
    8000210e:	c789                	beqz	a5,80002118 <syscall+0x44>
    {
        // Use num to lookup the system call function for num, call it,
        // and store its return value in p->trapframe->a0
        p->trapframe->a0 = syscalls[num]();
    80002110:	9782                	jalr	a5
    80002112:	06a93823          	sd	a0,112(s2)
    80002116:	a839                	j	80002134 <syscall+0x60>
    }
    else
    {
        printf("%d %s: unknown sys call %d\n",
    80002118:	15848613          	addi	a2,s1,344
    8000211c:	588c                	lw	a1,48(s1)
    8000211e:	00006517          	auipc	a0,0x6
    80002122:	29a50513          	addi	a0,a0,666 # 800083b8 <states.1738+0x178>
    80002126:	00004097          	auipc	ra,0x4
    8000212a:	f56080e7          	jalr	-170(ra) # 8000607c <printf>
               p->pid, p->name, num);
        p->trapframe->a0 = -1;
    8000212e:	6cbc                	ld	a5,88(s1)
    80002130:	577d                	li	a4,-1
    80002132:	fbb8                	sd	a4,112(a5)
    }
}
    80002134:	60e2                	ld	ra,24(sp)
    80002136:	6442                	ld	s0,16(sp)
    80002138:	64a2                	ld	s1,8(sp)
    8000213a:	6902                	ld	s2,0(sp)
    8000213c:	6105                	addi	sp,sp,32
    8000213e:	8082                	ret

0000000080002140 <sys_exit>:
#include "spinlock.h"
#include "proc.h"

uint64
sys_exit(void)
{
    80002140:	1101                	addi	sp,sp,-32
    80002142:	ec06                	sd	ra,24(sp)
    80002144:	e822                	sd	s0,16(sp)
    80002146:	1000                	addi	s0,sp,32
  int n;
  argint(0, &n);
    80002148:	fec40593          	addi	a1,s0,-20
    8000214c:	4501                	li	a0,0
    8000214e:	00000097          	auipc	ra,0x0
    80002152:	f0e080e7          	jalr	-242(ra) # 8000205c <argint>
  exit(n);
    80002156:	fec42503          	lw	a0,-20(s0)
    8000215a:	fffff097          	auipc	ra,0xfffff
    8000215e:	4e0080e7          	jalr	1248(ra) # 8000163a <exit>
  return 0;  // not reached
}
    80002162:	4501                	li	a0,0
    80002164:	60e2                	ld	ra,24(sp)
    80002166:	6442                	ld	s0,16(sp)
    80002168:	6105                	addi	sp,sp,32
    8000216a:	8082                	ret

000000008000216c <sys_getpid>:

uint64
sys_getpid(void)
{
    8000216c:	1141                	addi	sp,sp,-16
    8000216e:	e406                	sd	ra,8(sp)
    80002170:	e022                	sd	s0,0(sp)
    80002172:	0800                	addi	s0,sp,16
  return myproc()->pid;
    80002174:	fffff097          	auipc	ra,0xfffff
    80002178:	cee080e7          	jalr	-786(ra) # 80000e62 <myproc>
}
    8000217c:	5908                	lw	a0,48(a0)
    8000217e:	60a2                	ld	ra,8(sp)
    80002180:	6402                	ld	s0,0(sp)
    80002182:	0141                	addi	sp,sp,16
    80002184:	8082                	ret

0000000080002186 <sys_fork>:

uint64
sys_fork(void)
{
    80002186:	1141                	addi	sp,sp,-16
    80002188:	e406                	sd	ra,8(sp)
    8000218a:	e022                	sd	s0,0(sp)
    8000218c:	0800                	addi	s0,sp,16
  return fork();
    8000218e:	fffff097          	auipc	ra,0xfffff
    80002192:	08a080e7          	jalr	138(ra) # 80001218 <fork>
}
    80002196:	60a2                	ld	ra,8(sp)
    80002198:	6402                	ld	s0,0(sp)
    8000219a:	0141                	addi	sp,sp,16
    8000219c:	8082                	ret

000000008000219e <sys_wait>:

uint64
sys_wait(void)
{
    8000219e:	1101                	addi	sp,sp,-32
    800021a0:	ec06                	sd	ra,24(sp)
    800021a2:	e822                	sd	s0,16(sp)
    800021a4:	1000                	addi	s0,sp,32
  uint64 p;
  argaddr(0, &p);
    800021a6:	fe840593          	addi	a1,s0,-24
    800021aa:	4501                	li	a0,0
    800021ac:	00000097          	auipc	ra,0x0
    800021b0:	ed0080e7          	jalr	-304(ra) # 8000207c <argaddr>
  return wait(p);
    800021b4:	fe843503          	ld	a0,-24(s0)
    800021b8:	fffff097          	auipc	ra,0xfffff
    800021bc:	628080e7          	jalr	1576(ra) # 800017e0 <wait>
}
    800021c0:	60e2                	ld	ra,24(sp)
    800021c2:	6442                	ld	s0,16(sp)
    800021c4:	6105                	addi	sp,sp,32
    800021c6:	8082                	ret

00000000800021c8 <sys_sbrk>:

uint64
sys_sbrk(void)
{
    800021c8:	7179                	addi	sp,sp,-48
    800021ca:	f406                	sd	ra,40(sp)
    800021cc:	f022                	sd	s0,32(sp)
    800021ce:	ec26                	sd	s1,24(sp)
    800021d0:	1800                	addi	s0,sp,48
  uint64 addr;
  int n;

  argint(0, &n);
    800021d2:	fdc40593          	addi	a1,s0,-36
    800021d6:	4501                	li	a0,0
    800021d8:	00000097          	auipc	ra,0x0
    800021dc:	e84080e7          	jalr	-380(ra) # 8000205c <argint>
  addr = myproc()->sz;
    800021e0:	fffff097          	auipc	ra,0xfffff
    800021e4:	c82080e7          	jalr	-894(ra) # 80000e62 <myproc>
    800021e8:	6524                	ld	s1,72(a0)
  if(growproc(n) < 0)
    800021ea:	fdc42503          	lw	a0,-36(s0)
    800021ee:	fffff097          	auipc	ra,0xfffff
    800021f2:	fce080e7          	jalr	-50(ra) # 800011bc <growproc>
    800021f6:	00054863          	bltz	a0,80002206 <sys_sbrk+0x3e>
    return -1;
  return addr;
}
    800021fa:	8526                	mv	a0,s1
    800021fc:	70a2                	ld	ra,40(sp)
    800021fe:	7402                	ld	s0,32(sp)
    80002200:	64e2                	ld	s1,24(sp)
    80002202:	6145                	addi	sp,sp,48
    80002204:	8082                	ret
    return -1;
    80002206:	54fd                	li	s1,-1
    80002208:	bfcd                	j	800021fa <sys_sbrk+0x32>

000000008000220a <sys_sleep>:

uint64
sys_sleep(void)
{
    8000220a:	7139                	addi	sp,sp,-64
    8000220c:	fc06                	sd	ra,56(sp)
    8000220e:	f822                	sd	s0,48(sp)
    80002210:	f426                	sd	s1,40(sp)
    80002212:	f04a                	sd	s2,32(sp)
    80002214:	ec4e                	sd	s3,24(sp)
    80002216:	0080                	addi	s0,sp,64
  int n;
  uint ticks0;

  argint(0, &n);
    80002218:	fcc40593          	addi	a1,s0,-52
    8000221c:	4501                	li	a0,0
    8000221e:	00000097          	auipc	ra,0x0
    80002222:	e3e080e7          	jalr	-450(ra) # 8000205c <argint>
  if(n < 0)
    80002226:	fcc42783          	lw	a5,-52(s0)
    8000222a:	0607cf63          	bltz	a5,800022a8 <sys_sleep+0x9e>
    n = 0;
  acquire(&tickslock);
    8000222e:	0001e517          	auipc	a0,0x1e
    80002232:	72250513          	addi	a0,a0,1826 # 80020950 <tickslock>
    80002236:	00004097          	auipc	ra,0x4
    8000223a:	346080e7          	jalr	838(ra) # 8000657c <acquire>
  ticks0 = ticks;
    8000223e:	00007917          	auipc	s2,0x7
    80002242:	8aa92903          	lw	s2,-1878(s2) # 80008ae8 <ticks>
  while(ticks - ticks0 < n){
    80002246:	fcc42783          	lw	a5,-52(s0)
    8000224a:	cf9d                	beqz	a5,80002288 <sys_sleep+0x7e>
    if(killed(myproc())){
      release(&tickslock);
      return -1;
    }
    sleep(&ticks, &tickslock);
    8000224c:	0001e997          	auipc	s3,0x1e
    80002250:	70498993          	addi	s3,s3,1796 # 80020950 <tickslock>
    80002254:	00007497          	auipc	s1,0x7
    80002258:	89448493          	addi	s1,s1,-1900 # 80008ae8 <ticks>
    if(killed(myproc())){
    8000225c:	fffff097          	auipc	ra,0xfffff
    80002260:	c06080e7          	jalr	-1018(ra) # 80000e62 <myproc>
    80002264:	fffff097          	auipc	ra,0xfffff
    80002268:	54a080e7          	jalr	1354(ra) # 800017ae <killed>
    8000226c:	e129                	bnez	a0,800022ae <sys_sleep+0xa4>
    sleep(&ticks, &tickslock);
    8000226e:	85ce                	mv	a1,s3
    80002270:	8526                	mv	a0,s1
    80002272:	fffff097          	auipc	ra,0xfffff
    80002276:	294080e7          	jalr	660(ra) # 80001506 <sleep>
  while(ticks - ticks0 < n){
    8000227a:	409c                	lw	a5,0(s1)
    8000227c:	412787bb          	subw	a5,a5,s2
    80002280:	fcc42703          	lw	a4,-52(s0)
    80002284:	fce7ece3          	bltu	a5,a4,8000225c <sys_sleep+0x52>
  }
  release(&tickslock);
    80002288:	0001e517          	auipc	a0,0x1e
    8000228c:	6c850513          	addi	a0,a0,1736 # 80020950 <tickslock>
    80002290:	00004097          	auipc	ra,0x4
    80002294:	3a0080e7          	jalr	928(ra) # 80006630 <release>
  return 0;
    80002298:	4501                	li	a0,0
}
    8000229a:	70e2                	ld	ra,56(sp)
    8000229c:	7442                	ld	s0,48(sp)
    8000229e:	74a2                	ld	s1,40(sp)
    800022a0:	7902                	ld	s2,32(sp)
    800022a2:	69e2                	ld	s3,24(sp)
    800022a4:	6121                	addi	sp,sp,64
    800022a6:	8082                	ret
    n = 0;
    800022a8:	fc042623          	sw	zero,-52(s0)
    800022ac:	b749                	j	8000222e <sys_sleep+0x24>
      release(&tickslock);
    800022ae:	0001e517          	auipc	a0,0x1e
    800022b2:	6a250513          	addi	a0,a0,1698 # 80020950 <tickslock>
    800022b6:	00004097          	auipc	ra,0x4
    800022ba:	37a080e7          	jalr	890(ra) # 80006630 <release>
      return -1;
    800022be:	557d                	li	a0,-1
    800022c0:	bfe9                	j	8000229a <sys_sleep+0x90>

00000000800022c2 <sys_kill>:

uint64
sys_kill(void)
{
    800022c2:	1101                	addi	sp,sp,-32
    800022c4:	ec06                	sd	ra,24(sp)
    800022c6:	e822                	sd	s0,16(sp)
    800022c8:	1000                	addi	s0,sp,32
  int pid;

  argint(0, &pid);
    800022ca:	fec40593          	addi	a1,s0,-20
    800022ce:	4501                	li	a0,0
    800022d0:	00000097          	auipc	ra,0x0
    800022d4:	d8c080e7          	jalr	-628(ra) # 8000205c <argint>
  return kill(pid);
    800022d8:	fec42503          	lw	a0,-20(s0)
    800022dc:	fffff097          	auipc	ra,0xfffff
    800022e0:	434080e7          	jalr	1076(ra) # 80001710 <kill>
}
    800022e4:	60e2                	ld	ra,24(sp)
    800022e6:	6442                	ld	s0,16(sp)
    800022e8:	6105                	addi	sp,sp,32
    800022ea:	8082                	ret

00000000800022ec <sys_uptime>:

// return how many clock tick interrupts have occurred
// since start.
uint64
sys_uptime(void)
{
    800022ec:	1101                	addi	sp,sp,-32
    800022ee:	ec06                	sd	ra,24(sp)
    800022f0:	e822                	sd	s0,16(sp)
    800022f2:	e426                	sd	s1,8(sp)
    800022f4:	1000                	addi	s0,sp,32
  uint xticks;

  acquire(&tickslock);
    800022f6:	0001e517          	auipc	a0,0x1e
    800022fa:	65a50513          	addi	a0,a0,1626 # 80020950 <tickslock>
    800022fe:	00004097          	auipc	ra,0x4
    80002302:	27e080e7          	jalr	638(ra) # 8000657c <acquire>
  xticks = ticks;
    80002306:	00006497          	auipc	s1,0x6
    8000230a:	7e24a483          	lw	s1,2018(s1) # 80008ae8 <ticks>
  release(&tickslock);
    8000230e:	0001e517          	auipc	a0,0x1e
    80002312:	64250513          	addi	a0,a0,1602 # 80020950 <tickslock>
    80002316:	00004097          	auipc	ra,0x4
    8000231a:	31a080e7          	jalr	794(ra) # 80006630 <release>
  return xticks;
}
    8000231e:	02049513          	slli	a0,s1,0x20
    80002322:	9101                	srli	a0,a0,0x20
    80002324:	60e2                	ld	ra,24(sp)
    80002326:	6442                	ld	s0,16(sp)
    80002328:	64a2                	ld	s1,8(sp)
    8000232a:	6105                	addi	sp,sp,32
    8000232c:	8082                	ret

000000008000232e <binit>:
  struct buf head;
} bcache;

void
binit(void)
{
    8000232e:	7179                	addi	sp,sp,-48
    80002330:	f406                	sd	ra,40(sp)
    80002332:	f022                	sd	s0,32(sp)
    80002334:	ec26                	sd	s1,24(sp)
    80002336:	e84a                	sd	s2,16(sp)
    80002338:	e44e                	sd	s3,8(sp)
    8000233a:	e052                	sd	s4,0(sp)
    8000233c:	1800                	addi	s0,sp,48
  struct buf *b;

  initlock(&bcache.lock, "bcache");
    8000233e:	00006597          	auipc	a1,0x6
    80002342:	17258593          	addi	a1,a1,370 # 800084b0 <syscalls+0xc0>
    80002346:	0001e517          	auipc	a0,0x1e
    8000234a:	62250513          	addi	a0,a0,1570 # 80020968 <bcache>
    8000234e:	00004097          	auipc	ra,0x4
    80002352:	19e080e7          	jalr	414(ra) # 800064ec <initlock>

  // Create linked list of buffers
  bcache.head.prev = &bcache.head;
    80002356:	00026797          	auipc	a5,0x26
    8000235a:	61278793          	addi	a5,a5,1554 # 80028968 <bcache+0x8000>
    8000235e:	00027717          	auipc	a4,0x27
    80002362:	87270713          	addi	a4,a4,-1934 # 80028bd0 <bcache+0x8268>
    80002366:	2ae7b823          	sd	a4,688(a5)
  bcache.head.next = &bcache.head;
    8000236a:	2ae7bc23          	sd	a4,696(a5)
  for(b = bcache.buf; b < bcache.buf+NBUF; b++){
    8000236e:	0001e497          	auipc	s1,0x1e
    80002372:	61248493          	addi	s1,s1,1554 # 80020980 <bcache+0x18>
    b->next = bcache.head.next;
    80002376:	893e                	mv	s2,a5
    b->prev = &bcache.head;
    80002378:	89ba                	mv	s3,a4
    initsleeplock(&b->lock, "buffer");
    8000237a:	00006a17          	auipc	s4,0x6
    8000237e:	13ea0a13          	addi	s4,s4,318 # 800084b8 <syscalls+0xc8>
    b->next = bcache.head.next;
    80002382:	2b893783          	ld	a5,696(s2)
    80002386:	e8bc                	sd	a5,80(s1)
    b->prev = &bcache.head;
    80002388:	0534b423          	sd	s3,72(s1)
    initsleeplock(&b->lock, "buffer");
    8000238c:	85d2                	mv	a1,s4
    8000238e:	01048513          	addi	a0,s1,16
    80002392:	00001097          	auipc	ra,0x1
    80002396:	4c4080e7          	jalr	1220(ra) # 80003856 <initsleeplock>
    bcache.head.next->prev = b;
    8000239a:	2b893783          	ld	a5,696(s2)
    8000239e:	e7a4                	sd	s1,72(a5)
    bcache.head.next = b;
    800023a0:	2a993c23          	sd	s1,696(s2)
  for(b = bcache.buf; b < bcache.buf+NBUF; b++){
    800023a4:	45848493          	addi	s1,s1,1112
    800023a8:	fd349de3          	bne	s1,s3,80002382 <binit+0x54>
  }
}
    800023ac:	70a2                	ld	ra,40(sp)
    800023ae:	7402                	ld	s0,32(sp)
    800023b0:	64e2                	ld	s1,24(sp)
    800023b2:	6942                	ld	s2,16(sp)
    800023b4:	69a2                	ld	s3,8(sp)
    800023b6:	6a02                	ld	s4,0(sp)
    800023b8:	6145                	addi	sp,sp,48
    800023ba:	8082                	ret

00000000800023bc <bread>:
}

// Return a locked buf with the contents of the indicated block.
struct buf*
bread(uint dev, uint blockno)
{
    800023bc:	7179                	addi	sp,sp,-48
    800023be:	f406                	sd	ra,40(sp)
    800023c0:	f022                	sd	s0,32(sp)
    800023c2:	ec26                	sd	s1,24(sp)
    800023c4:	e84a                	sd	s2,16(sp)
    800023c6:	e44e                	sd	s3,8(sp)
    800023c8:	1800                	addi	s0,sp,48
    800023ca:	89aa                	mv	s3,a0
    800023cc:	892e                	mv	s2,a1
  acquire(&bcache.lock);
    800023ce:	0001e517          	auipc	a0,0x1e
    800023d2:	59a50513          	addi	a0,a0,1434 # 80020968 <bcache>
    800023d6:	00004097          	auipc	ra,0x4
    800023da:	1a6080e7          	jalr	422(ra) # 8000657c <acquire>
  for(b = bcache.head.next; b != &bcache.head; b = b->next){
    800023de:	00027497          	auipc	s1,0x27
    800023e2:	8424b483          	ld	s1,-1982(s1) # 80028c20 <bcache+0x82b8>
    800023e6:	00026797          	auipc	a5,0x26
    800023ea:	7ea78793          	addi	a5,a5,2026 # 80028bd0 <bcache+0x8268>
    800023ee:	02f48f63          	beq	s1,a5,8000242c <bread+0x70>
    800023f2:	873e                	mv	a4,a5
    800023f4:	a021                	j	800023fc <bread+0x40>
    800023f6:	68a4                	ld	s1,80(s1)
    800023f8:	02e48a63          	beq	s1,a4,8000242c <bread+0x70>
    if(b->dev == dev && b->blockno == blockno){
    800023fc:	449c                	lw	a5,8(s1)
    800023fe:	ff379ce3          	bne	a5,s3,800023f6 <bread+0x3a>
    80002402:	44dc                	lw	a5,12(s1)
    80002404:	ff2799e3          	bne	a5,s2,800023f6 <bread+0x3a>
      b->refcnt++;
    80002408:	40bc                	lw	a5,64(s1)
    8000240a:	2785                	addiw	a5,a5,1
    8000240c:	c0bc                	sw	a5,64(s1)
      release(&bcache.lock);
    8000240e:	0001e517          	auipc	a0,0x1e
    80002412:	55a50513          	addi	a0,a0,1370 # 80020968 <bcache>
    80002416:	00004097          	auipc	ra,0x4
    8000241a:	21a080e7          	jalr	538(ra) # 80006630 <release>
      acquiresleep(&b->lock);
    8000241e:	01048513          	addi	a0,s1,16
    80002422:	00001097          	auipc	ra,0x1
    80002426:	46e080e7          	jalr	1134(ra) # 80003890 <acquiresleep>
      return b;
    8000242a:	a8b9                	j	80002488 <bread+0xcc>
  for(b = bcache.head.prev; b != &bcache.head; b = b->prev){
    8000242c:	00026497          	auipc	s1,0x26
    80002430:	7ec4b483          	ld	s1,2028(s1) # 80028c18 <bcache+0x82b0>
    80002434:	00026797          	auipc	a5,0x26
    80002438:	79c78793          	addi	a5,a5,1948 # 80028bd0 <bcache+0x8268>
    8000243c:	00f48863          	beq	s1,a5,8000244c <bread+0x90>
    80002440:	873e                	mv	a4,a5
    if(b->refcnt == 0) {
    80002442:	40bc                	lw	a5,64(s1)
    80002444:	cf81                	beqz	a5,8000245c <bread+0xa0>
  for(b = bcache.head.prev; b != &bcache.head; b = b->prev){
    80002446:	64a4                	ld	s1,72(s1)
    80002448:	fee49de3          	bne	s1,a4,80002442 <bread+0x86>
  panic("bget: no buffers");
    8000244c:	00006517          	auipc	a0,0x6
    80002450:	07450513          	addi	a0,a0,116 # 800084c0 <syscalls+0xd0>
    80002454:	00004097          	auipc	ra,0x4
    80002458:	bde080e7          	jalr	-1058(ra) # 80006032 <panic>
      b->dev = dev;
    8000245c:	0134a423          	sw	s3,8(s1)
      b->blockno = blockno;
    80002460:	0124a623          	sw	s2,12(s1)
      b->valid = 0;
    80002464:	0004a023          	sw	zero,0(s1)
      b->refcnt = 1;
    80002468:	4785                	li	a5,1
    8000246a:	c0bc                	sw	a5,64(s1)
      release(&bcache.lock);
    8000246c:	0001e517          	auipc	a0,0x1e
    80002470:	4fc50513          	addi	a0,a0,1276 # 80020968 <bcache>
    80002474:	00004097          	auipc	ra,0x4
    80002478:	1bc080e7          	jalr	444(ra) # 80006630 <release>
      acquiresleep(&b->lock);
    8000247c:	01048513          	addi	a0,s1,16
    80002480:	00001097          	auipc	ra,0x1
    80002484:	410080e7          	jalr	1040(ra) # 80003890 <acquiresleep>
  struct buf *b;

  b = bget(dev, blockno);
  if(!b->valid) {
    80002488:	409c                	lw	a5,0(s1)
    8000248a:	cb89                	beqz	a5,8000249c <bread+0xe0>
    virtio_disk_rw(b, 0);
    b->valid = 1;
  }
  return b;
}
    8000248c:	8526                	mv	a0,s1
    8000248e:	70a2                	ld	ra,40(sp)
    80002490:	7402                	ld	s0,32(sp)
    80002492:	64e2                	ld	s1,24(sp)
    80002494:	6942                	ld	s2,16(sp)
    80002496:	69a2                	ld	s3,8(sp)
    80002498:	6145                	addi	sp,sp,48
    8000249a:	8082                	ret
    virtio_disk_rw(b, 0);
    8000249c:	4581                	li	a1,0
    8000249e:	8526                	mv	a0,s1
    800024a0:	00003097          	auipc	ra,0x3
    800024a4:	328080e7          	jalr	808(ra) # 800057c8 <virtio_disk_rw>
    b->valid = 1;
    800024a8:	4785                	li	a5,1
    800024aa:	c09c                	sw	a5,0(s1)
  return b;
    800024ac:	b7c5                	j	8000248c <bread+0xd0>

00000000800024ae <bwrite>:

// Write b's contents to disk.  Must be locked.
void
bwrite(struct buf *b)
{
    800024ae:	1101                	addi	sp,sp,-32
    800024b0:	ec06                	sd	ra,24(sp)
    800024b2:	e822                	sd	s0,16(sp)
    800024b4:	e426                	sd	s1,8(sp)
    800024b6:	1000                	addi	s0,sp,32
    800024b8:	84aa                	mv	s1,a0
  if(!holdingsleep(&b->lock))
    800024ba:	0541                	addi	a0,a0,16
    800024bc:	00001097          	auipc	ra,0x1
    800024c0:	46e080e7          	jalr	1134(ra) # 8000392a <holdingsleep>
    800024c4:	cd01                	beqz	a0,800024dc <bwrite+0x2e>
    panic("bwrite");
  virtio_disk_rw(b, 1);
    800024c6:	4585                	li	a1,1
    800024c8:	8526                	mv	a0,s1
    800024ca:	00003097          	auipc	ra,0x3
    800024ce:	2fe080e7          	jalr	766(ra) # 800057c8 <virtio_disk_rw>
}
    800024d2:	60e2                	ld	ra,24(sp)
    800024d4:	6442                	ld	s0,16(sp)
    800024d6:	64a2                	ld	s1,8(sp)
    800024d8:	6105                	addi	sp,sp,32
    800024da:	8082                	ret
    panic("bwrite");
    800024dc:	00006517          	auipc	a0,0x6
    800024e0:	ffc50513          	addi	a0,a0,-4 # 800084d8 <syscalls+0xe8>
    800024e4:	00004097          	auipc	ra,0x4
    800024e8:	b4e080e7          	jalr	-1202(ra) # 80006032 <panic>

00000000800024ec <brelse>:

// Release a locked buffer.
// Move to the head of the most-recently-used list.
void
brelse(struct buf *b)
{
    800024ec:	1101                	addi	sp,sp,-32
    800024ee:	ec06                	sd	ra,24(sp)
    800024f0:	e822                	sd	s0,16(sp)
    800024f2:	e426                	sd	s1,8(sp)
    800024f4:	e04a                	sd	s2,0(sp)
    800024f6:	1000                	addi	s0,sp,32
    800024f8:	84aa                	mv	s1,a0
  if(!holdingsleep(&b->lock))
    800024fa:	01050913          	addi	s2,a0,16
    800024fe:	854a                	mv	a0,s2
    80002500:	00001097          	auipc	ra,0x1
    80002504:	42a080e7          	jalr	1066(ra) # 8000392a <holdingsleep>
    80002508:	c92d                	beqz	a0,8000257a <brelse+0x8e>
    panic("brelse");

  releasesleep(&b->lock);
    8000250a:	854a                	mv	a0,s2
    8000250c:	00001097          	auipc	ra,0x1
    80002510:	3da080e7          	jalr	986(ra) # 800038e6 <releasesleep>

  acquire(&bcache.lock);
    80002514:	0001e517          	auipc	a0,0x1e
    80002518:	45450513          	addi	a0,a0,1108 # 80020968 <bcache>
    8000251c:	00004097          	auipc	ra,0x4
    80002520:	060080e7          	jalr	96(ra) # 8000657c <acquire>
  b->refcnt--;
    80002524:	40bc                	lw	a5,64(s1)
    80002526:	37fd                	addiw	a5,a5,-1
    80002528:	0007871b          	sext.w	a4,a5
    8000252c:	c0bc                	sw	a5,64(s1)
  if (b->refcnt == 0) {
    8000252e:	eb05                	bnez	a4,8000255e <brelse+0x72>
    // no one is waiting for it.
    b->next->prev = b->prev;
    80002530:	68bc                	ld	a5,80(s1)
    80002532:	64b8                	ld	a4,72(s1)
    80002534:	e7b8                	sd	a4,72(a5)
    b->prev->next = b->next;
    80002536:	64bc                	ld	a5,72(s1)
    80002538:	68b8                	ld	a4,80(s1)
    8000253a:	ebb8                	sd	a4,80(a5)
    b->next = bcache.head.next;
    8000253c:	00026797          	auipc	a5,0x26
    80002540:	42c78793          	addi	a5,a5,1068 # 80028968 <bcache+0x8000>
    80002544:	2b87b703          	ld	a4,696(a5)
    80002548:	e8b8                	sd	a4,80(s1)
    b->prev = &bcache.head;
    8000254a:	00026717          	auipc	a4,0x26
    8000254e:	68670713          	addi	a4,a4,1670 # 80028bd0 <bcache+0x8268>
    80002552:	e4b8                	sd	a4,72(s1)
    bcache.head.next->prev = b;
    80002554:	2b87b703          	ld	a4,696(a5)
    80002558:	e724                	sd	s1,72(a4)
    bcache.head.next = b;
    8000255a:	2a97bc23          	sd	s1,696(a5)
  }
  
  release(&bcache.lock);
    8000255e:	0001e517          	auipc	a0,0x1e
    80002562:	40a50513          	addi	a0,a0,1034 # 80020968 <bcache>
    80002566:	00004097          	auipc	ra,0x4
    8000256a:	0ca080e7          	jalr	202(ra) # 80006630 <release>
}
    8000256e:	60e2                	ld	ra,24(sp)
    80002570:	6442                	ld	s0,16(sp)
    80002572:	64a2                	ld	s1,8(sp)
    80002574:	6902                	ld	s2,0(sp)
    80002576:	6105                	addi	sp,sp,32
    80002578:	8082                	ret
    panic("brelse");
    8000257a:	00006517          	auipc	a0,0x6
    8000257e:	f6650513          	addi	a0,a0,-154 # 800084e0 <syscalls+0xf0>
    80002582:	00004097          	auipc	ra,0x4
    80002586:	ab0080e7          	jalr	-1360(ra) # 80006032 <panic>

000000008000258a <bpin>:

void
bpin(struct buf *b) {
    8000258a:	1101                	addi	sp,sp,-32
    8000258c:	ec06                	sd	ra,24(sp)
    8000258e:	e822                	sd	s0,16(sp)
    80002590:	e426                	sd	s1,8(sp)
    80002592:	1000                	addi	s0,sp,32
    80002594:	84aa                	mv	s1,a0
  acquire(&bcache.lock);
    80002596:	0001e517          	auipc	a0,0x1e
    8000259a:	3d250513          	addi	a0,a0,978 # 80020968 <bcache>
    8000259e:	00004097          	auipc	ra,0x4
    800025a2:	fde080e7          	jalr	-34(ra) # 8000657c <acquire>
  b->refcnt++;
    800025a6:	40bc                	lw	a5,64(s1)
    800025a8:	2785                	addiw	a5,a5,1
    800025aa:	c0bc                	sw	a5,64(s1)
  release(&bcache.lock);
    800025ac:	0001e517          	auipc	a0,0x1e
    800025b0:	3bc50513          	addi	a0,a0,956 # 80020968 <bcache>
    800025b4:	00004097          	auipc	ra,0x4
    800025b8:	07c080e7          	jalr	124(ra) # 80006630 <release>
}
    800025bc:	60e2                	ld	ra,24(sp)
    800025be:	6442                	ld	s0,16(sp)
    800025c0:	64a2                	ld	s1,8(sp)
    800025c2:	6105                	addi	sp,sp,32
    800025c4:	8082                	ret

00000000800025c6 <bunpin>:

void
bunpin(struct buf *b) {
    800025c6:	1101                	addi	sp,sp,-32
    800025c8:	ec06                	sd	ra,24(sp)
    800025ca:	e822                	sd	s0,16(sp)
    800025cc:	e426                	sd	s1,8(sp)
    800025ce:	1000                	addi	s0,sp,32
    800025d0:	84aa                	mv	s1,a0
  acquire(&bcache.lock);
    800025d2:	0001e517          	auipc	a0,0x1e
    800025d6:	39650513          	addi	a0,a0,918 # 80020968 <bcache>
    800025da:	00004097          	auipc	ra,0x4
    800025de:	fa2080e7          	jalr	-94(ra) # 8000657c <acquire>
  b->refcnt--;
    800025e2:	40bc                	lw	a5,64(s1)
    800025e4:	37fd                	addiw	a5,a5,-1
    800025e6:	c0bc                	sw	a5,64(s1)
  release(&bcache.lock);
    800025e8:	0001e517          	auipc	a0,0x1e
    800025ec:	38050513          	addi	a0,a0,896 # 80020968 <bcache>
    800025f0:	00004097          	auipc	ra,0x4
    800025f4:	040080e7          	jalr	64(ra) # 80006630 <release>
}
    800025f8:	60e2                	ld	ra,24(sp)
    800025fa:	6442                	ld	s0,16(sp)
    800025fc:	64a2                	ld	s1,8(sp)
    800025fe:	6105                	addi	sp,sp,32
    80002600:	8082                	ret

0000000080002602 <bfree>:
}

// Free a disk block.
static void
bfree(int dev, uint b)
{
    80002602:	1101                	addi	sp,sp,-32
    80002604:	ec06                	sd	ra,24(sp)
    80002606:	e822                	sd	s0,16(sp)
    80002608:	e426                	sd	s1,8(sp)
    8000260a:	e04a                	sd	s2,0(sp)
    8000260c:	1000                	addi	s0,sp,32
    8000260e:	84ae                	mv	s1,a1
    struct buf *bp;
    int bi, m;

    bp = bread(dev, BBLOCK(b, sb));
    80002610:	00d5d59b          	srliw	a1,a1,0xd
    80002614:	00027797          	auipc	a5,0x27
    80002618:	a307a783          	lw	a5,-1488(a5) # 80029044 <sb+0x1c>
    8000261c:	9dbd                	addw	a1,a1,a5
    8000261e:	00000097          	auipc	ra,0x0
    80002622:	d9e080e7          	jalr	-610(ra) # 800023bc <bread>
    bi = b % BPB;
    m = 1 << (bi % 8);
    80002626:	0074f713          	andi	a4,s1,7
    8000262a:	4785                	li	a5,1
    8000262c:	00e797bb          	sllw	a5,a5,a4
    if ((bp->data[bi / 8] & m) == 0)
    80002630:	14ce                	slli	s1,s1,0x33
    80002632:	90d9                	srli	s1,s1,0x36
    80002634:	00950733          	add	a4,a0,s1
    80002638:	05874703          	lbu	a4,88(a4)
    8000263c:	00e7f6b3          	and	a3,a5,a4
    80002640:	c69d                	beqz	a3,8000266e <bfree+0x6c>
    80002642:	892a                	mv	s2,a0
        panic("freeing free block");
    bp->data[bi / 8] &= ~m;
    80002644:	94aa                	add	s1,s1,a0
    80002646:	fff7c793          	not	a5,a5
    8000264a:	8ff9                	and	a5,a5,a4
    8000264c:	04f48c23          	sb	a5,88(s1)
    log_write(bp);
    80002650:	00001097          	auipc	ra,0x1
    80002654:	120080e7          	jalr	288(ra) # 80003770 <log_write>
    brelse(bp);
    80002658:	854a                	mv	a0,s2
    8000265a:	00000097          	auipc	ra,0x0
    8000265e:	e92080e7          	jalr	-366(ra) # 800024ec <brelse>
}
    80002662:	60e2                	ld	ra,24(sp)
    80002664:	6442                	ld	s0,16(sp)
    80002666:	64a2                	ld	s1,8(sp)
    80002668:	6902                	ld	s2,0(sp)
    8000266a:	6105                	addi	sp,sp,32
    8000266c:	8082                	ret
        panic("freeing free block");
    8000266e:	00006517          	auipc	a0,0x6
    80002672:	e7a50513          	addi	a0,a0,-390 # 800084e8 <syscalls+0xf8>
    80002676:	00004097          	auipc	ra,0x4
    8000267a:	9bc080e7          	jalr	-1604(ra) # 80006032 <panic>

000000008000267e <balloc>:
{
    8000267e:	711d                	addi	sp,sp,-96
    80002680:	ec86                	sd	ra,88(sp)
    80002682:	e8a2                	sd	s0,80(sp)
    80002684:	e4a6                	sd	s1,72(sp)
    80002686:	e0ca                	sd	s2,64(sp)
    80002688:	fc4e                	sd	s3,56(sp)
    8000268a:	f852                	sd	s4,48(sp)
    8000268c:	f456                	sd	s5,40(sp)
    8000268e:	f05a                	sd	s6,32(sp)
    80002690:	ec5e                	sd	s7,24(sp)
    80002692:	e862                	sd	s8,16(sp)
    80002694:	e466                	sd	s9,8(sp)
    80002696:	1080                	addi	s0,sp,96
    for (b = 0; b < sb.size; b += BPB)
    80002698:	00027797          	auipc	a5,0x27
    8000269c:	9947a783          	lw	a5,-1644(a5) # 8002902c <sb+0x4>
    800026a0:	10078163          	beqz	a5,800027a2 <balloc+0x124>
    800026a4:	8baa                	mv	s7,a0
    800026a6:	4a81                	li	s5,0
        bp = bread(dev, BBLOCK(b, sb));
    800026a8:	00027b17          	auipc	s6,0x27
    800026ac:	980b0b13          	addi	s6,s6,-1664 # 80029028 <sb>
        for (bi = 0; bi < BPB && b + bi < sb.size; bi++)
    800026b0:	4c01                	li	s8,0
            m = 1 << (bi % 8);
    800026b2:	4985                	li	s3,1
        for (bi = 0; bi < BPB && b + bi < sb.size; bi++)
    800026b4:	6a09                	lui	s4,0x2
    for (b = 0; b < sb.size; b += BPB)
    800026b6:	6c89                	lui	s9,0x2
    800026b8:	a061                	j	80002740 <balloc+0xc2>
                bp->data[bi / 8] |= m; // Mark block in use.
    800026ba:	974a                	add	a4,a4,s2
    800026bc:	8fd5                	or	a5,a5,a3
    800026be:	04f70c23          	sb	a5,88(a4)
                log_write(bp);
    800026c2:	854a                	mv	a0,s2
    800026c4:	00001097          	auipc	ra,0x1
    800026c8:	0ac080e7          	jalr	172(ra) # 80003770 <log_write>
                brelse(bp);
    800026cc:	854a                	mv	a0,s2
    800026ce:	00000097          	auipc	ra,0x0
    800026d2:	e1e080e7          	jalr	-482(ra) # 800024ec <brelse>
    bp = bread(dev, bno);
    800026d6:	85a6                	mv	a1,s1
    800026d8:	855e                	mv	a0,s7
    800026da:	00000097          	auipc	ra,0x0
    800026de:	ce2080e7          	jalr	-798(ra) # 800023bc <bread>
    800026e2:	892a                	mv	s2,a0
    memset(bp->data, 0, BSIZE);
    800026e4:	40000613          	li	a2,1024
    800026e8:	4581                	li	a1,0
    800026ea:	05850513          	addi	a0,a0,88
    800026ee:	ffffe097          	auipc	ra,0xffffe
    800026f2:	a8a080e7          	jalr	-1398(ra) # 80000178 <memset>
    log_write(bp);
    800026f6:	854a                	mv	a0,s2
    800026f8:	00001097          	auipc	ra,0x1
    800026fc:	078080e7          	jalr	120(ra) # 80003770 <log_write>
    brelse(bp);
    80002700:	854a                	mv	a0,s2
    80002702:	00000097          	auipc	ra,0x0
    80002706:	dea080e7          	jalr	-534(ra) # 800024ec <brelse>
}
    8000270a:	8526                	mv	a0,s1
    8000270c:	60e6                	ld	ra,88(sp)
    8000270e:	6446                	ld	s0,80(sp)
    80002710:	64a6                	ld	s1,72(sp)
    80002712:	6906                	ld	s2,64(sp)
    80002714:	79e2                	ld	s3,56(sp)
    80002716:	7a42                	ld	s4,48(sp)
    80002718:	7aa2                	ld	s5,40(sp)
    8000271a:	7b02                	ld	s6,32(sp)
    8000271c:	6be2                	ld	s7,24(sp)
    8000271e:	6c42                	ld	s8,16(sp)
    80002720:	6ca2                	ld	s9,8(sp)
    80002722:	6125                	addi	sp,sp,96
    80002724:	8082                	ret
        brelse(bp);
    80002726:	854a                	mv	a0,s2
    80002728:	00000097          	auipc	ra,0x0
    8000272c:	dc4080e7          	jalr	-572(ra) # 800024ec <brelse>
    for (b = 0; b < sb.size; b += BPB)
    80002730:	015c87bb          	addw	a5,s9,s5
    80002734:	00078a9b          	sext.w	s5,a5
    80002738:	004b2703          	lw	a4,4(s6)
    8000273c:	06eaf363          	bgeu	s5,a4,800027a2 <balloc+0x124>
        bp = bread(dev, BBLOCK(b, sb));
    80002740:	41fad79b          	sraiw	a5,s5,0x1f
    80002744:	0137d79b          	srliw	a5,a5,0x13
    80002748:	015787bb          	addw	a5,a5,s5
    8000274c:	40d7d79b          	sraiw	a5,a5,0xd
    80002750:	01cb2583          	lw	a1,28(s6)
    80002754:	9dbd                	addw	a1,a1,a5
    80002756:	855e                	mv	a0,s7
    80002758:	00000097          	auipc	ra,0x0
    8000275c:	c64080e7          	jalr	-924(ra) # 800023bc <bread>
    80002760:	892a                	mv	s2,a0
        for (bi = 0; bi < BPB && b + bi < sb.size; bi++)
    80002762:	004b2503          	lw	a0,4(s6)
    80002766:	000a849b          	sext.w	s1,s5
    8000276a:	8662                	mv	a2,s8
    8000276c:	faa4fde3          	bgeu	s1,a0,80002726 <balloc+0xa8>
            m = 1 << (bi % 8);
    80002770:	41f6579b          	sraiw	a5,a2,0x1f
    80002774:	01d7d69b          	srliw	a3,a5,0x1d
    80002778:	00c6873b          	addw	a4,a3,a2
    8000277c:	00777793          	andi	a5,a4,7
    80002780:	9f95                	subw	a5,a5,a3
    80002782:	00f997bb          	sllw	a5,s3,a5
            if ((bp->data[bi / 8] & m) == 0)
    80002786:	4037571b          	sraiw	a4,a4,0x3
    8000278a:	00e906b3          	add	a3,s2,a4
    8000278e:	0586c683          	lbu	a3,88(a3)
    80002792:	00d7f5b3          	and	a1,a5,a3
    80002796:	d195                	beqz	a1,800026ba <balloc+0x3c>
        for (bi = 0; bi < BPB && b + bi < sb.size; bi++)
    80002798:	2605                	addiw	a2,a2,1
    8000279a:	2485                	addiw	s1,s1,1
    8000279c:	fd4618e3          	bne	a2,s4,8000276c <balloc+0xee>
    800027a0:	b759                	j	80002726 <balloc+0xa8>
    printf("balloc: out of blocks\n");
    800027a2:	00006517          	auipc	a0,0x6
    800027a6:	d5e50513          	addi	a0,a0,-674 # 80008500 <syscalls+0x110>
    800027aa:	00004097          	auipc	ra,0x4
    800027ae:	8d2080e7          	jalr	-1838(ra) # 8000607c <printf>
    return 0;
    800027b2:	4481                	li	s1,0
    800027b4:	bf99                	j	8000270a <balloc+0x8c>

00000000800027b6 <bmap>:
// Return the disk block address of the nth block in inode ip.
// If there is no such block, bmap allocates one.
// returns 0 if out of disk space.
static uint
bmap(struct inode *ip, uint bn)
{
    800027b6:	7179                	addi	sp,sp,-48
    800027b8:	f406                	sd	ra,40(sp)
    800027ba:	f022                	sd	s0,32(sp)
    800027bc:	ec26                	sd	s1,24(sp)
    800027be:	e84a                	sd	s2,16(sp)
    800027c0:	e44e                	sd	s3,8(sp)
    800027c2:	e052                	sd	s4,0(sp)
    800027c4:	1800                	addi	s0,sp,48
    800027c6:	89aa                	mv	s3,a0
    uint addr, *a;
    struct buf *bp;

    if (bn < NDIRECT)
    800027c8:	47ad                	li	a5,11
    800027ca:	02b7e763          	bltu	a5,a1,800027f8 <bmap+0x42>
    {
        if ((addr = ip->addrs[bn]) == 0)
    800027ce:	02059493          	slli	s1,a1,0x20
    800027d2:	9081                	srli	s1,s1,0x20
    800027d4:	048a                	slli	s1,s1,0x2
    800027d6:	94aa                	add	s1,s1,a0
    800027d8:	0504a903          	lw	s2,80(s1)
    800027dc:	06091e63          	bnez	s2,80002858 <bmap+0xa2>
        {
            addr = balloc(ip->dev);
    800027e0:	4108                	lw	a0,0(a0)
    800027e2:	00000097          	auipc	ra,0x0
    800027e6:	e9c080e7          	jalr	-356(ra) # 8000267e <balloc>
    800027ea:	0005091b          	sext.w	s2,a0
            if (addr == 0)
    800027ee:	06090563          	beqz	s2,80002858 <bmap+0xa2>
                return 0;
            ip->addrs[bn] = addr;
    800027f2:	0524a823          	sw	s2,80(s1)
    800027f6:	a08d                	j	80002858 <bmap+0xa2>
        }
        return addr;
    }
    bn -= NDIRECT;
    800027f8:	ff45849b          	addiw	s1,a1,-12
    800027fc:	0004871b          	sext.w	a4,s1

    if (bn < NINDIRECT)
    80002800:	0ff00793          	li	a5,255
    80002804:	08e7e563          	bltu	a5,a4,8000288e <bmap+0xd8>
    {
        // Load indirect block, allocating if necessary.
        if ((addr = ip->addrs[NDIRECT]) == 0)
    80002808:	08052903          	lw	s2,128(a0)
    8000280c:	00091d63          	bnez	s2,80002826 <bmap+0x70>
        {
            addr = balloc(ip->dev);
    80002810:	4108                	lw	a0,0(a0)
    80002812:	00000097          	auipc	ra,0x0
    80002816:	e6c080e7          	jalr	-404(ra) # 8000267e <balloc>
    8000281a:	0005091b          	sext.w	s2,a0
            if (addr == 0)
    8000281e:	02090d63          	beqz	s2,80002858 <bmap+0xa2>
                return 0;
            ip->addrs[NDIRECT] = addr;
    80002822:	0929a023          	sw	s2,128(s3)
        }
        bp = bread(ip->dev, addr);
    80002826:	85ca                	mv	a1,s2
    80002828:	0009a503          	lw	a0,0(s3)
    8000282c:	00000097          	auipc	ra,0x0
    80002830:	b90080e7          	jalr	-1136(ra) # 800023bc <bread>
    80002834:	8a2a                	mv	s4,a0
        a = (uint *)bp->data;
    80002836:	05850793          	addi	a5,a0,88
        if ((addr = a[bn]) == 0)
    8000283a:	02049593          	slli	a1,s1,0x20
    8000283e:	9181                	srli	a1,a1,0x20
    80002840:	058a                	slli	a1,a1,0x2
    80002842:	00b784b3          	add	s1,a5,a1
    80002846:	0004a903          	lw	s2,0(s1)
    8000284a:	02090063          	beqz	s2,8000286a <bmap+0xb4>
            {
                a[bn] = addr;
                log_write(bp);
            }
        }
        brelse(bp);
    8000284e:	8552                	mv	a0,s4
    80002850:	00000097          	auipc	ra,0x0
    80002854:	c9c080e7          	jalr	-868(ra) # 800024ec <brelse>
        return addr;
    }

    panic("bmap: out of range");
}
    80002858:	854a                	mv	a0,s2
    8000285a:	70a2                	ld	ra,40(sp)
    8000285c:	7402                	ld	s0,32(sp)
    8000285e:	64e2                	ld	s1,24(sp)
    80002860:	6942                	ld	s2,16(sp)
    80002862:	69a2                	ld	s3,8(sp)
    80002864:	6a02                	ld	s4,0(sp)
    80002866:	6145                	addi	sp,sp,48
    80002868:	8082                	ret
            addr = balloc(ip->dev);
    8000286a:	0009a503          	lw	a0,0(s3)
    8000286e:	00000097          	auipc	ra,0x0
    80002872:	e10080e7          	jalr	-496(ra) # 8000267e <balloc>
    80002876:	0005091b          	sext.w	s2,a0
            if (addr)
    8000287a:	fc090ae3          	beqz	s2,8000284e <bmap+0x98>
                a[bn] = addr;
    8000287e:	0124a023          	sw	s2,0(s1)
                log_write(bp);
    80002882:	8552                	mv	a0,s4
    80002884:	00001097          	auipc	ra,0x1
    80002888:	eec080e7          	jalr	-276(ra) # 80003770 <log_write>
    8000288c:	b7c9                	j	8000284e <bmap+0x98>
    panic("bmap: out of range");
    8000288e:	00006517          	auipc	a0,0x6
    80002892:	c8a50513          	addi	a0,a0,-886 # 80008518 <syscalls+0x128>
    80002896:	00003097          	auipc	ra,0x3
    8000289a:	79c080e7          	jalr	1948(ra) # 80006032 <panic>

000000008000289e <iget>:
{
    8000289e:	7179                	addi	sp,sp,-48
    800028a0:	f406                	sd	ra,40(sp)
    800028a2:	f022                	sd	s0,32(sp)
    800028a4:	ec26                	sd	s1,24(sp)
    800028a6:	e84a                	sd	s2,16(sp)
    800028a8:	e44e                	sd	s3,8(sp)
    800028aa:	e052                	sd	s4,0(sp)
    800028ac:	1800                	addi	s0,sp,48
    800028ae:	89aa                	mv	s3,a0
    800028b0:	8a2e                	mv	s4,a1
    acquire(&itable.lock);
    800028b2:	00026517          	auipc	a0,0x26
    800028b6:	79650513          	addi	a0,a0,1942 # 80029048 <itable>
    800028ba:	00004097          	auipc	ra,0x4
    800028be:	cc2080e7          	jalr	-830(ra) # 8000657c <acquire>
    empty = 0;
    800028c2:	4901                	li	s2,0
    for (ip = &itable.inode[0]; ip < &itable.inode[NINODE]; ip++)
    800028c4:	00026497          	auipc	s1,0x26
    800028c8:	79c48493          	addi	s1,s1,1948 # 80029060 <itable+0x18>
    800028cc:	00028697          	auipc	a3,0x28
    800028d0:	22468693          	addi	a3,a3,548 # 8002aaf0 <log>
    800028d4:	a039                	j	800028e2 <iget+0x44>
        if (empty == 0 && ip->ref == 0) // Remember empty slot.
    800028d6:	02090b63          	beqz	s2,8000290c <iget+0x6e>
    for (ip = &itable.inode[0]; ip < &itable.inode[NINODE]; ip++)
    800028da:	08848493          	addi	s1,s1,136
    800028de:	02d48a63          	beq	s1,a3,80002912 <iget+0x74>
        if (ip->ref > 0 && ip->dev == dev && ip->inum == inum)
    800028e2:	449c                	lw	a5,8(s1)
    800028e4:	fef059e3          	blez	a5,800028d6 <iget+0x38>
    800028e8:	4098                	lw	a4,0(s1)
    800028ea:	ff3716e3          	bne	a4,s3,800028d6 <iget+0x38>
    800028ee:	40d8                	lw	a4,4(s1)
    800028f0:	ff4713e3          	bne	a4,s4,800028d6 <iget+0x38>
            ip->ref++;
    800028f4:	2785                	addiw	a5,a5,1
    800028f6:	c49c                	sw	a5,8(s1)
            release(&itable.lock);
    800028f8:	00026517          	auipc	a0,0x26
    800028fc:	75050513          	addi	a0,a0,1872 # 80029048 <itable>
    80002900:	00004097          	auipc	ra,0x4
    80002904:	d30080e7          	jalr	-720(ra) # 80006630 <release>
            return ip;
    80002908:	8926                	mv	s2,s1
    8000290a:	a03d                	j	80002938 <iget+0x9a>
        if (empty == 0 && ip->ref == 0) // Remember empty slot.
    8000290c:	f7f9                	bnez	a5,800028da <iget+0x3c>
    8000290e:	8926                	mv	s2,s1
    80002910:	b7e9                	j	800028da <iget+0x3c>
    if (empty == 0)
    80002912:	02090c63          	beqz	s2,8000294a <iget+0xac>
    ip->dev = dev;
    80002916:	01392023          	sw	s3,0(s2)
    ip->inum = inum;
    8000291a:	01492223          	sw	s4,4(s2)
    ip->ref = 1;
    8000291e:	4785                	li	a5,1
    80002920:	00f92423          	sw	a5,8(s2)
    ip->valid = 0;
    80002924:	04092023          	sw	zero,64(s2)
    release(&itable.lock);
    80002928:	00026517          	auipc	a0,0x26
    8000292c:	72050513          	addi	a0,a0,1824 # 80029048 <itable>
    80002930:	00004097          	auipc	ra,0x4
    80002934:	d00080e7          	jalr	-768(ra) # 80006630 <release>
}
    80002938:	854a                	mv	a0,s2
    8000293a:	70a2                	ld	ra,40(sp)
    8000293c:	7402                	ld	s0,32(sp)
    8000293e:	64e2                	ld	s1,24(sp)
    80002940:	6942                	ld	s2,16(sp)
    80002942:	69a2                	ld	s3,8(sp)
    80002944:	6a02                	ld	s4,0(sp)
    80002946:	6145                	addi	sp,sp,48
    80002948:	8082                	ret
        panic("iget: no inodes");
    8000294a:	00006517          	auipc	a0,0x6
    8000294e:	be650513          	addi	a0,a0,-1050 # 80008530 <syscalls+0x140>
    80002952:	00003097          	auipc	ra,0x3
    80002956:	6e0080e7          	jalr	1760(ra) # 80006032 <panic>

000000008000295a <fsinit>:
{
    8000295a:	7179                	addi	sp,sp,-48
    8000295c:	f406                	sd	ra,40(sp)
    8000295e:	f022                	sd	s0,32(sp)
    80002960:	ec26                	sd	s1,24(sp)
    80002962:	e84a                	sd	s2,16(sp)
    80002964:	e44e                	sd	s3,8(sp)
    80002966:	1800                	addi	s0,sp,48
    80002968:	892a                	mv	s2,a0
    bp = bread(dev, 1);
    8000296a:	4585                	li	a1,1
    8000296c:	00000097          	auipc	ra,0x0
    80002970:	a50080e7          	jalr	-1456(ra) # 800023bc <bread>
    80002974:	84aa                	mv	s1,a0
    memmove(sb, bp->data, sizeof(*sb));
    80002976:	00026997          	auipc	s3,0x26
    8000297a:	6b298993          	addi	s3,s3,1714 # 80029028 <sb>
    8000297e:	02000613          	li	a2,32
    80002982:	05850593          	addi	a1,a0,88
    80002986:	854e                	mv	a0,s3
    80002988:	ffffe097          	auipc	ra,0xffffe
    8000298c:	850080e7          	jalr	-1968(ra) # 800001d8 <memmove>
    brelse(bp);
    80002990:	8526                	mv	a0,s1
    80002992:	00000097          	auipc	ra,0x0
    80002996:	b5a080e7          	jalr	-1190(ra) # 800024ec <brelse>
    if (sb.magic != FSMAGIC)
    8000299a:	0009a703          	lw	a4,0(s3)
    8000299e:	102037b7          	lui	a5,0x10203
    800029a2:	04078793          	addi	a5,a5,64 # 10203040 <_entry-0x6fdfcfc0>
    800029a6:	02f71263          	bne	a4,a5,800029ca <fsinit+0x70>
    initlog(dev, &sb);
    800029aa:	00026597          	auipc	a1,0x26
    800029ae:	67e58593          	addi	a1,a1,1662 # 80029028 <sb>
    800029b2:	854a                	mv	a0,s2
    800029b4:	00001097          	auipc	ra,0x1
    800029b8:	b40080e7          	jalr	-1216(ra) # 800034f4 <initlog>
}
    800029bc:	70a2                	ld	ra,40(sp)
    800029be:	7402                	ld	s0,32(sp)
    800029c0:	64e2                	ld	s1,24(sp)
    800029c2:	6942                	ld	s2,16(sp)
    800029c4:	69a2                	ld	s3,8(sp)
    800029c6:	6145                	addi	sp,sp,48
    800029c8:	8082                	ret
        panic("invalid file system");
    800029ca:	00006517          	auipc	a0,0x6
    800029ce:	b7650513          	addi	a0,a0,-1162 # 80008540 <syscalls+0x150>
    800029d2:	00003097          	auipc	ra,0x3
    800029d6:	660080e7          	jalr	1632(ra) # 80006032 <panic>

00000000800029da <iinit>:
{
    800029da:	7179                	addi	sp,sp,-48
    800029dc:	f406                	sd	ra,40(sp)
    800029de:	f022                	sd	s0,32(sp)
    800029e0:	ec26                	sd	s1,24(sp)
    800029e2:	e84a                	sd	s2,16(sp)
    800029e4:	e44e                	sd	s3,8(sp)
    800029e6:	1800                	addi	s0,sp,48
    initlock(&itable.lock, "itable");
    800029e8:	00006597          	auipc	a1,0x6
    800029ec:	b7058593          	addi	a1,a1,-1168 # 80008558 <syscalls+0x168>
    800029f0:	00026517          	auipc	a0,0x26
    800029f4:	65850513          	addi	a0,a0,1624 # 80029048 <itable>
    800029f8:	00004097          	auipc	ra,0x4
    800029fc:	af4080e7          	jalr	-1292(ra) # 800064ec <initlock>
    for (i = 0; i < NINODE; i++)
    80002a00:	00026497          	auipc	s1,0x26
    80002a04:	67048493          	addi	s1,s1,1648 # 80029070 <itable+0x28>
    80002a08:	00028997          	auipc	s3,0x28
    80002a0c:	0f898993          	addi	s3,s3,248 # 8002ab00 <log+0x10>
        initsleeplock(&itable.inode[i].lock, "inode");
    80002a10:	00006917          	auipc	s2,0x6
    80002a14:	b5090913          	addi	s2,s2,-1200 # 80008560 <syscalls+0x170>
    80002a18:	85ca                	mv	a1,s2
    80002a1a:	8526                	mv	a0,s1
    80002a1c:	00001097          	auipc	ra,0x1
    80002a20:	e3a080e7          	jalr	-454(ra) # 80003856 <initsleeplock>
    for (i = 0; i < NINODE; i++)
    80002a24:	08848493          	addi	s1,s1,136
    80002a28:	ff3498e3          	bne	s1,s3,80002a18 <iinit+0x3e>
}
    80002a2c:	70a2                	ld	ra,40(sp)
    80002a2e:	7402                	ld	s0,32(sp)
    80002a30:	64e2                	ld	s1,24(sp)
    80002a32:	6942                	ld	s2,16(sp)
    80002a34:	69a2                	ld	s3,8(sp)
    80002a36:	6145                	addi	sp,sp,48
    80002a38:	8082                	ret

0000000080002a3a <ialloc>:
{
    80002a3a:	715d                	addi	sp,sp,-80
    80002a3c:	e486                	sd	ra,72(sp)
    80002a3e:	e0a2                	sd	s0,64(sp)
    80002a40:	fc26                	sd	s1,56(sp)
    80002a42:	f84a                	sd	s2,48(sp)
    80002a44:	f44e                	sd	s3,40(sp)
    80002a46:	f052                	sd	s4,32(sp)
    80002a48:	ec56                	sd	s5,24(sp)
    80002a4a:	e85a                	sd	s6,16(sp)
    80002a4c:	e45e                	sd	s7,8(sp)
    80002a4e:	0880                	addi	s0,sp,80
    for (inum = 1; inum < sb.ninodes; inum++)
    80002a50:	00026717          	auipc	a4,0x26
    80002a54:	5e472703          	lw	a4,1508(a4) # 80029034 <sb+0xc>
    80002a58:	4785                	li	a5,1
    80002a5a:	04e7fa63          	bgeu	a5,a4,80002aae <ialloc+0x74>
    80002a5e:	8aaa                	mv	s5,a0
    80002a60:	8bae                	mv	s7,a1
    80002a62:	4485                	li	s1,1
        bp = bread(dev, IBLOCK(inum, sb));
    80002a64:	00026a17          	auipc	s4,0x26
    80002a68:	5c4a0a13          	addi	s4,s4,1476 # 80029028 <sb>
    80002a6c:	00048b1b          	sext.w	s6,s1
    80002a70:	0044d593          	srli	a1,s1,0x4
    80002a74:	018a2783          	lw	a5,24(s4)
    80002a78:	9dbd                	addw	a1,a1,a5
    80002a7a:	8556                	mv	a0,s5
    80002a7c:	00000097          	auipc	ra,0x0
    80002a80:	940080e7          	jalr	-1728(ra) # 800023bc <bread>
    80002a84:	892a                	mv	s2,a0
        dip = (struct dinode *)bp->data + inum % IPB;
    80002a86:	05850993          	addi	s3,a0,88
    80002a8a:	00f4f793          	andi	a5,s1,15
    80002a8e:	079a                	slli	a5,a5,0x6
    80002a90:	99be                	add	s3,s3,a5
        if (dip->type == 0)
    80002a92:	00099783          	lh	a5,0(s3)
    80002a96:	c3a1                	beqz	a5,80002ad6 <ialloc+0x9c>
        brelse(bp);
    80002a98:	00000097          	auipc	ra,0x0
    80002a9c:	a54080e7          	jalr	-1452(ra) # 800024ec <brelse>
    for (inum = 1; inum < sb.ninodes; inum++)
    80002aa0:	0485                	addi	s1,s1,1
    80002aa2:	00ca2703          	lw	a4,12(s4)
    80002aa6:	0004879b          	sext.w	a5,s1
    80002aaa:	fce7e1e3          	bltu	a5,a4,80002a6c <ialloc+0x32>
    printf("ialloc: no inodes\n");
    80002aae:	00006517          	auipc	a0,0x6
    80002ab2:	aba50513          	addi	a0,a0,-1350 # 80008568 <syscalls+0x178>
    80002ab6:	00003097          	auipc	ra,0x3
    80002aba:	5c6080e7          	jalr	1478(ra) # 8000607c <printf>
    return 0;
    80002abe:	4501                	li	a0,0
}
    80002ac0:	60a6                	ld	ra,72(sp)
    80002ac2:	6406                	ld	s0,64(sp)
    80002ac4:	74e2                	ld	s1,56(sp)
    80002ac6:	7942                	ld	s2,48(sp)
    80002ac8:	79a2                	ld	s3,40(sp)
    80002aca:	7a02                	ld	s4,32(sp)
    80002acc:	6ae2                	ld	s5,24(sp)
    80002ace:	6b42                	ld	s6,16(sp)
    80002ad0:	6ba2                	ld	s7,8(sp)
    80002ad2:	6161                	addi	sp,sp,80
    80002ad4:	8082                	ret
            memset(dip, 0, sizeof(*dip));
    80002ad6:	04000613          	li	a2,64
    80002ada:	4581                	li	a1,0
    80002adc:	854e                	mv	a0,s3
    80002ade:	ffffd097          	auipc	ra,0xffffd
    80002ae2:	69a080e7          	jalr	1690(ra) # 80000178 <memset>
            dip->type = type;
    80002ae6:	01799023          	sh	s7,0(s3)
            log_write(bp); // mark it allocated on the disk
    80002aea:	854a                	mv	a0,s2
    80002aec:	00001097          	auipc	ra,0x1
    80002af0:	c84080e7          	jalr	-892(ra) # 80003770 <log_write>
            brelse(bp);
    80002af4:	854a                	mv	a0,s2
    80002af6:	00000097          	auipc	ra,0x0
    80002afa:	9f6080e7          	jalr	-1546(ra) # 800024ec <brelse>
            return iget(dev, inum);
    80002afe:	85da                	mv	a1,s6
    80002b00:	8556                	mv	a0,s5
    80002b02:	00000097          	auipc	ra,0x0
    80002b06:	d9c080e7          	jalr	-612(ra) # 8000289e <iget>
    80002b0a:	bf5d                	j	80002ac0 <ialloc+0x86>

0000000080002b0c <iupdate>:
{
    80002b0c:	1101                	addi	sp,sp,-32
    80002b0e:	ec06                	sd	ra,24(sp)
    80002b10:	e822                	sd	s0,16(sp)
    80002b12:	e426                	sd	s1,8(sp)
    80002b14:	e04a                	sd	s2,0(sp)
    80002b16:	1000                	addi	s0,sp,32
    80002b18:	84aa                	mv	s1,a0
    bp = bread(ip->dev, IBLOCK(ip->inum, sb));
    80002b1a:	415c                	lw	a5,4(a0)
    80002b1c:	0047d79b          	srliw	a5,a5,0x4
    80002b20:	00026597          	auipc	a1,0x26
    80002b24:	5205a583          	lw	a1,1312(a1) # 80029040 <sb+0x18>
    80002b28:	9dbd                	addw	a1,a1,a5
    80002b2a:	4108                	lw	a0,0(a0)
    80002b2c:	00000097          	auipc	ra,0x0
    80002b30:	890080e7          	jalr	-1904(ra) # 800023bc <bread>
    80002b34:	892a                	mv	s2,a0
    dip = (struct dinode *)bp->data + ip->inum % IPB;
    80002b36:	05850793          	addi	a5,a0,88
    80002b3a:	40c8                	lw	a0,4(s1)
    80002b3c:	893d                	andi	a0,a0,15
    80002b3e:	051a                	slli	a0,a0,0x6
    80002b40:	953e                	add	a0,a0,a5
    dip->type = ip->type;
    80002b42:	04449703          	lh	a4,68(s1)
    80002b46:	00e51023          	sh	a4,0(a0)
    dip->major = ip->major;
    80002b4a:	04649703          	lh	a4,70(s1)
    80002b4e:	00e51123          	sh	a4,2(a0)
    dip->minor = ip->minor;
    80002b52:	04849703          	lh	a4,72(s1)
    80002b56:	00e51223          	sh	a4,4(a0)
    dip->nlink = ip->nlink;
    80002b5a:	04a49703          	lh	a4,74(s1)
    80002b5e:	00e51323          	sh	a4,6(a0)
    dip->size = ip->size;
    80002b62:	44f8                	lw	a4,76(s1)
    80002b64:	c518                	sw	a4,8(a0)
    memmove(dip->addrs, ip->addrs, sizeof(ip->addrs));
    80002b66:	03400613          	li	a2,52
    80002b6a:	05048593          	addi	a1,s1,80
    80002b6e:	0531                	addi	a0,a0,12
    80002b70:	ffffd097          	auipc	ra,0xffffd
    80002b74:	668080e7          	jalr	1640(ra) # 800001d8 <memmove>
    log_write(bp);
    80002b78:	854a                	mv	a0,s2
    80002b7a:	00001097          	auipc	ra,0x1
    80002b7e:	bf6080e7          	jalr	-1034(ra) # 80003770 <log_write>
    brelse(bp);
    80002b82:	854a                	mv	a0,s2
    80002b84:	00000097          	auipc	ra,0x0
    80002b88:	968080e7          	jalr	-1688(ra) # 800024ec <brelse>
}
    80002b8c:	60e2                	ld	ra,24(sp)
    80002b8e:	6442                	ld	s0,16(sp)
    80002b90:	64a2                	ld	s1,8(sp)
    80002b92:	6902                	ld	s2,0(sp)
    80002b94:	6105                	addi	sp,sp,32
    80002b96:	8082                	ret

0000000080002b98 <idup>:
{
    80002b98:	1101                	addi	sp,sp,-32
    80002b9a:	ec06                	sd	ra,24(sp)
    80002b9c:	e822                	sd	s0,16(sp)
    80002b9e:	e426                	sd	s1,8(sp)
    80002ba0:	1000                	addi	s0,sp,32
    80002ba2:	84aa                	mv	s1,a0
    acquire(&itable.lock);
    80002ba4:	00026517          	auipc	a0,0x26
    80002ba8:	4a450513          	addi	a0,a0,1188 # 80029048 <itable>
    80002bac:	00004097          	auipc	ra,0x4
    80002bb0:	9d0080e7          	jalr	-1584(ra) # 8000657c <acquire>
    ip->ref++;
    80002bb4:	449c                	lw	a5,8(s1)
    80002bb6:	2785                	addiw	a5,a5,1
    80002bb8:	c49c                	sw	a5,8(s1)
    release(&itable.lock);
    80002bba:	00026517          	auipc	a0,0x26
    80002bbe:	48e50513          	addi	a0,a0,1166 # 80029048 <itable>
    80002bc2:	00004097          	auipc	ra,0x4
    80002bc6:	a6e080e7          	jalr	-1426(ra) # 80006630 <release>
}
    80002bca:	8526                	mv	a0,s1
    80002bcc:	60e2                	ld	ra,24(sp)
